   1               		.file	"nrk_error.c"
   2               	__SP_H__ = 0x3e
   3               	__SP_L__ = 0x3d
   4               	__SREG__ = 0x3f
   5               	__RAMPZ__ = 0x3b
   6               	__tmp_reg__ = 0
   7               	__zero_reg__ = 1
  10               		.text
  11               	.Ltext0:
 321               	.global	_nrk_errno_set
 323               	_nrk_errno_set:
 324               		.stabd	46,0,0
   1:../../src/kernel/source/nrk_error.c **** /******************************************************************************
   2:../../src/kernel/source/nrk_error.c **** *  Nano-RK, a real-time operating system for sensor networks.
   3:../../src/kernel/source/nrk_error.c **** *  Copyright (C) 2007, Real-Time and Multimedia Lab, Carnegie Mellon University
   4:../../src/kernel/source/nrk_error.c **** *  All rights reserved.
   5:../../src/kernel/source/nrk_error.c **** *
   6:../../src/kernel/source/nrk_error.c **** *  This is the Open Source Version of Nano-RK included as part of a Dual
   7:../../src/kernel/source/nrk_error.c **** *  Licensing Model. If you are unsure which license to use please refer to:
   8:../../src/kernel/source/nrk_error.c **** *  http://www.nanork.org/nano-RK/wiki/Licensing
   9:../../src/kernel/source/nrk_error.c **** *
  10:../../src/kernel/source/nrk_error.c **** *  This program is free software: you can redistribute it and/or modify
  11:../../src/kernel/source/nrk_error.c **** *  it under the terms of the GNU General Public License as published by
  12:../../src/kernel/source/nrk_error.c **** *  the Free Software Foundation, version 2.0 of the License.
  13:../../src/kernel/source/nrk_error.c **** *
  14:../../src/kernel/source/nrk_error.c **** *  This program is distributed in the hope that it will be useful,
  15:../../src/kernel/source/nrk_error.c **** *  but WITHOUT ANY WARRANTY; without even the implied warranty of
  16:../../src/kernel/source/nrk_error.c **** *  MERCHANTABILITY or FITNESS FOR A PARTICULAR PURPOSE.  See the
  17:../../src/kernel/source/nrk_error.c **** *  GNU General Public License for more details.
  18:../../src/kernel/source/nrk_error.c **** *
  19:../../src/kernel/source/nrk_error.c **** *  You should have received a copy of the GNU General Public License
  20:../../src/kernel/source/nrk_error.c **** *  along with this program.  If not, see <http://www.gnu.org/licenses/>.
  21:../../src/kernel/source/nrk_error.c **** *
  22:../../src/kernel/source/nrk_error.c **** *  Contributing Authors (specific to this file):
  23:../../src/kernel/source/nrk_error.c **** *  Anthony Rowe
  24:../../src/kernel/source/nrk_error.c **** *  Zane Starr
  25:../../src/kernel/source/nrk_error.c **** *  Anand Eswaren
  26:../../src/kernel/source/nrk_error.c **** *******************************************************************************/
  27:../../src/kernel/source/nrk_error.c **** 
  28:../../src/kernel/source/nrk_error.c **** #include <nrk_error.h>
  29:../../src/kernel/source/nrk_error.c **** #include <stdio.h>
  30:../../src/kernel/source/nrk_error.c **** #include <nrk.h>
  31:../../src/kernel/source/nrk_error.c **** #include <nrk_task.h>
  32:../../src/kernel/source/nrk_error.c **** #include <nrk_cfg.h>
  33:../../src/kernel/source/nrk_error.c **** #include <nrk_timer.h>
  34:../../src/kernel/source/nrk_error.c **** #ifdef NRK_LOG_ERRORS
  35:../../src/kernel/source/nrk_error.c **** #include <nrk_eeprom.h>
  36:../../src/kernel/source/nrk_error.c **** #include <nrk_watchdog.h>
  37:../../src/kernel/source/nrk_error.c **** static uint8_t error_cnt;
  38:../../src/kernel/source/nrk_error.c **** #endif
  39:../../src/kernel/source/nrk_error.c **** 
  40:../../src/kernel/source/nrk_error.c **** inline void clear_regs();
  41:../../src/kernel/source/nrk_error.c **** inline void nrk_error_handle();
  42:../../src/kernel/source/nrk_error.c **** inline int8_t nrk_error_print ();
  43:../../src/kernel/source/nrk_error.c **** 
  44:../../src/kernel/source/nrk_error.c **** 
  45:../../src/kernel/source/nrk_error.c **** inline void pause();
  46:../../src/kernel/source/nrk_error.c **** inline void blink_morse_code_error( uint8_t number );
  47:../../src/kernel/source/nrk_error.c **** 
  48:../../src/kernel/source/nrk_error.c **** 
  49:../../src/kernel/source/nrk_error.c **** void _nrk_errno_set (NRK_ERRNO error_code)
  50:../../src/kernel/source/nrk_error.c **** {
 326               	.LM0:
 327               	.LFBB1:
 328               	/* prologue: function */
 329               	/* frame size = 0 */
 330               	/* stack size = 0 */
 331               	.L__stack_usage = 0
  51:../../src/kernel/source/nrk_error.c ****     nrk_cur_task_TCB->errno = error_code;
 333               	.LM1:
 334 0000 E091 0000 		lds r30,nrk_cur_task_TCB
 335 0004 F091 0000 		lds r31,nrk_cur_task_TCB+1
 336 0008 8487      		std Z+12,r24
 337 000a 0895      		ret
 339               	.Lscope1:
 341               		.stabd	78,0,0
 343               	.global	nrk_errno_get
 345               	nrk_errno_get:
 346               		.stabd	46,0,0
  52:../../src/kernel/source/nrk_error.c **** }
  53:../../src/kernel/source/nrk_error.c **** 
  54:../../src/kernel/source/nrk_error.c **** uint8_t nrk_errno_get ()
  55:../../src/kernel/source/nrk_error.c **** {
 348               	.LM2:
 349               	.LFBB2:
 350               	/* prologue: function */
 351               	/* frame size = 0 */
 352               	/* stack size = 0 */
 353               	.L__stack_usage = 0
  56:../../src/kernel/source/nrk_error.c ****     return nrk_cur_task_TCB->errno;
 355               	.LM3:
 356 000c E091 0000 		lds r30,nrk_cur_task_TCB
 357 0010 F091 0000 		lds r31,nrk_cur_task_TCB+1
  57:../../src/kernel/source/nrk_error.c **** }
 359               	.LM4:
 360 0014 8485      		ldd r24,Z+12
 361 0016 0895      		ret
 363               	.Lscope2:
 365               		.stabd	78,0,0
 369               	.global	nrk_error_get
 371               	nrk_error_get:
 372               		.stabd	46,0,0
  58:../../src/kernel/source/nrk_error.c **** 
  59:../../src/kernel/source/nrk_error.c **** #ifdef NRK_LOG_ERRORS
  60:../../src/kernel/source/nrk_error.c **** void _nrk_log_error(uint8_t error_num, uint8_t error_task)
  61:../../src/kernel/source/nrk_error.c **** {
  62:../../src/kernel/source/nrk_error.c **** 
  63:../../src/kernel/source/nrk_error.c ****     // 1) Load error cnt and add 1
  64:../../src/kernel/source/nrk_error.c ****     error_cnt=nrk_eeprom_read_byte(NRK_ERROR_EEPROM_INDEX);
  65:../../src/kernel/source/nrk_error.c ****     error_cnt++;
  66:../../src/kernel/source/nrk_error.c ****     if(error_cnt==255) error_cnt=0;
  67:../../src/kernel/source/nrk_error.c ****     // 2) write error
  68:../../src/kernel/source/nrk_error.c ****     nrk_eeprom_write_byte(NRK_ERROR_EEPROM_INDEX+1+((uint16_t)error_cnt*6),error_num);
  69:../../src/kernel/source/nrk_error.c ****     nrk_eeprom_write_byte(NRK_ERROR_EEPROM_INDEX+1+((uint16_t)error_cnt*6+1),error_task);
  70:../../src/kernel/source/nrk_error.c ****     nrk_eeprom_write_byte(NRK_ERROR_EEPROM_INDEX+1+((uint16_t)error_cnt*6+2),(nrk_system_time.secs>
  71:../../src/kernel/source/nrk_error.c ****     nrk_eeprom_write_byte(NRK_ERROR_EEPROM_INDEX+1+((uint16_t)error_cnt*6+3),(nrk_system_time.secs>
  72:../../src/kernel/source/nrk_error.c ****     nrk_eeprom_write_byte(NRK_ERROR_EEPROM_INDEX+1+((uint16_t)error_cnt*6+4),(nrk_system_time.secs>
  73:../../src/kernel/source/nrk_error.c ****     nrk_eeprom_write_byte(NRK_ERROR_EEPROM_INDEX+1+((uint16_t)error_cnt*6+5),(nrk_system_time.secs)
  74:../../src/kernel/source/nrk_error.c ****     // 3) write error cnt back
  75:../../src/kernel/source/nrk_error.c ****     nrk_eeprom_write_byte(NRK_ERROR_EEPROM_INDEX,error_cnt);
  76:../../src/kernel/source/nrk_error.c **** }
  77:../../src/kernel/source/nrk_error.c **** #endif
  78:../../src/kernel/source/nrk_error.c **** 
  79:../../src/kernel/source/nrk_error.c **** void nrk_error_add (uint8_t n)
  80:../../src/kernel/source/nrk_error.c **** {
  81:../../src/kernel/source/nrk_error.c ****     error_num = n;
  82:../../src/kernel/source/nrk_error.c ****     error_task = nrk_cur_task_TCB->task_ID;
  83:../../src/kernel/source/nrk_error.c **** 
  84:../../src/kernel/source/nrk_error.c **** #ifdef NRK_LOG_ERRORS
  85:../../src/kernel/source/nrk_error.c ****     _nrk_log_error(error_num, error_task);
  86:../../src/kernel/source/nrk_error.c **** #endif
  87:../../src/kernel/source/nrk_error.c **** 
  88:../../src/kernel/source/nrk_error.c **** #ifdef NRK_REPORT_ERRORS
  89:../../src/kernel/source/nrk_error.c ****     nrk_error_print ();
  90:../../src/kernel/source/nrk_error.c **** #endif 
  91:../../src/kernel/source/nrk_error.c **** 
  92:../../src/kernel/source/nrk_error.c **** nrk_error_handle();
  93:../../src/kernel/source/nrk_error.c **** 
  94:../../src/kernel/source/nrk_error.c **** }
  95:../../src/kernel/source/nrk_error.c **** 
  96:../../src/kernel/source/nrk_error.c **** void nrk_kernel_error_add (uint8_t n, uint8_t task)
  97:../../src/kernel/source/nrk_error.c **** {
  98:../../src/kernel/source/nrk_error.c ****     error_num = n;
  99:../../src/kernel/source/nrk_error.c ****     error_task = task;
 100:../../src/kernel/source/nrk_error.c **** 
 101:../../src/kernel/source/nrk_error.c **** #ifdef NRK_LOG_ERRORS
 102:../../src/kernel/source/nrk_error.c ****     _nrk_log_error(error_num, error_task);
 103:../../src/kernel/source/nrk_error.c **** #endif
 104:../../src/kernel/source/nrk_error.c **** 
 105:../../src/kernel/source/nrk_error.c **** #ifdef NRK_REPORT_ERRORS
 106:../../src/kernel/source/nrk_error.c ****     nrk_error_print ();
 107:../../src/kernel/source/nrk_error.c **** #endif 
 108:../../src/kernel/source/nrk_error.c **** 
 109:../../src/kernel/source/nrk_error.c **** nrk_error_handle();
 110:../../src/kernel/source/nrk_error.c **** 
 111:../../src/kernel/source/nrk_error.c **** }
 112:../../src/kernel/source/nrk_error.c **** 
 113:../../src/kernel/source/nrk_error.c **** 
 114:../../src/kernel/source/nrk_error.c **** uint8_t nrk_error_get (uint8_t * task_id, uint8_t * code)
 115:../../src/kernel/source/nrk_error.c **** {
 374               	.LM5:
 375               	.LFBB3:
 376               	/* prologue: function */
 377               	/* frame size = 0 */
 378               	/* stack size = 0 */
 379               	.L__stack_usage = 0
 380 0018 FC01      		movw r30,r24
 116:../../src/kernel/source/nrk_error.c ****     if (error_num == 0)
 382               	.LM6:
 383 001a 8091 0000 		lds r24,error_num
 384 001e 8823      		tst r24
 385 0020 01F0      		breq .L4
 117:../../src/kernel/source/nrk_error.c ****         return 0;
 118:../../src/kernel/source/nrk_error.c ****     *code = error_num;
 387               	.LM7:
 388 0022 DB01      		movw r26,r22
 389 0024 8C93      		st X,r24
 119:../../src/kernel/source/nrk_error.c ****     *task_id = error_task;
 391               	.LM8:
 392 0026 8091 0000 		lds r24,error_task
 393 002a 8083      		st Z,r24
 120:../../src/kernel/source/nrk_error.c ****     return 1;
 395               	.LM9:
 396 002c 81E0      		ldi r24,lo8(1)
 397               	.L4:
 121:../../src/kernel/source/nrk_error.c **** }
 399               	.LM10:
 400 002e 0895      		ret
 402               	.Lscope3:
 404               		.stabd	78,0,0
 405               		.section	.rodata.str1.1,"aMS",@progbits,1
 406               	.LC0:
 407 0000 2564 00   		.string	"%d"
 408               		.text
 410               	.global	nrk_error_print
 412               	nrk_error_print:
 413               		.stabd	46,0,0
 122:../../src/kernel/source/nrk_error.c **** 
 123:../../src/kernel/source/nrk_error.c **** 
 124:../../src/kernel/source/nrk_error.c **** inline void nrk_error_handle()
 125:../../src/kernel/source/nrk_error.c **** {
 126:../../src/kernel/source/nrk_error.c **** 
 127:../../src/kernel/source/nrk_error.c ****     int8_t i=0,t=0;
 128:../../src/kernel/source/nrk_error.c **** 
 129:../../src/kernel/source/nrk_error.c **** 
 130:../../src/kernel/source/nrk_error.c **** 
 131:../../src/kernel/source/nrk_error.c **** #ifdef NRK_HALT_ON_ERROR
 132:../../src/kernel/source/nrk_error.c ****         nrk_int_disable ();
 133:../../src/kernel/source/nrk_error.c **** 	#ifdef NRK_WATCHDOG
 134:../../src/kernel/source/nrk_error.c ****     		nrk_watchdog_disable();
 135:../../src/kernel/source/nrk_error.c **** 	#endif
 136:../../src/kernel/source/nrk_error.c **** #endif
 137:../../src/kernel/source/nrk_error.c **** 
 138:../../src/kernel/source/nrk_error.c **** #ifdef NRK_REBOOT_ON_ERROR
 139:../../src/kernel/source/nrk_error.c ****     nrk_int_disable ();
 140:../../src/kernel/source/nrk_error.c ****     nrk_watchdog_disable();
 141:../../src/kernel/source/nrk_error.c **** #endif
 142:../../src/kernel/source/nrk_error.c **** 
 143:../../src/kernel/source/nrk_error.c **** 
 144:../../src/kernel/source/nrk_error.c **** 
 145:../../src/kernel/source/nrk_error.c **** #ifdef NRK_SOFT_REBOOT_ON_ERROR
 146:../../src/kernel/source/nrk_error.c **** 	#ifdef NRK_WATCHDOG
 147:../../src/kernel/source/nrk_error.c ****         	nrk_watchdog_disable();
 148:../../src/kernel/source/nrk_error.c **** 	#endif
 149:../../src/kernel/source/nrk_error.c **** 
 150:../../src/kernel/source/nrk_error.c **** 
 151:../../src/kernel/source/nrk_error.c **** 	clear_regs();
 152:../../src/kernel/source/nrk_error.c **** 
 153:../../src/kernel/source/nrk_error.c **** 
 154:../../src/kernel/source/nrk_error.c ****         asm volatile(	"ldi r28,0xFF\n\t"
 155:../../src/kernel/source/nrk_error.c ****                         "out __SP_L__, r28\n\t"
 156:../../src/kernel/source/nrk_error.c ****                         "ldi r29,0x21\n\t"
 157:../../src/kernel/source/nrk_error.c ****                         "out __SP_H__, r29\n\t"
 158:../../src/kernel/source/nrk_error.c ****                         "clr r0\n\t"
 159:../../src/kernel/source/nrk_error.c ****                         "clr r1\n\t"
 160:../../src/kernel/source/nrk_error.c ****                         "clr r2\n\t"
 161:../../src/kernel/source/nrk_error.c ****                         "clr r3\n\t"
 162:../../src/kernel/source/nrk_error.c ****                         "clr r4\n\t"
 163:../../src/kernel/source/nrk_error.c ****                         "clr r5\n\t"
 164:../../src/kernel/source/nrk_error.c ****                         "clr r6\n\t"
 165:../../src/kernel/source/nrk_error.c ****                         "clr r7\n\t"
 166:../../src/kernel/source/nrk_error.c ****                         "clr r8\n\t"
 167:../../src/kernel/source/nrk_error.c ****                         "clr r9\n\t"
 168:../../src/kernel/source/nrk_error.c ****                         "clr r10\n\t"
 169:../../src/kernel/source/nrk_error.c ****                         "clr r11\n\t"
 170:../../src/kernel/source/nrk_error.c ****                         "clr r12\n\t"
 171:../../src/kernel/source/nrk_error.c ****                         "clr r13\n\t"
 172:../../src/kernel/source/nrk_error.c ****                         "clr r14\n\t"
 173:../../src/kernel/source/nrk_error.c ****                         "clr r15\n\t"
 174:../../src/kernel/source/nrk_error.c ****                         "clr r16\n\t"
 175:../../src/kernel/source/nrk_error.c ****                         "clr r17\n\t"
 176:../../src/kernel/source/nrk_error.c ****                         "clr r18\n\t"
 177:../../src/kernel/source/nrk_error.c ****                         "clr r19\n\t"
 178:../../src/kernel/source/nrk_error.c ****                         "clr r20\n\t"
 179:../../src/kernel/source/nrk_error.c ****                         "clr r21\n\t"
 180:../../src/kernel/source/nrk_error.c ****                         "clr r22\n\t"
 181:../../src/kernel/source/nrk_error.c ****                         "clr r23\n\t"
 182:../../src/kernel/source/nrk_error.c ****                         "clr r24\n\t"
 183:../../src/kernel/source/nrk_error.c ****                         "clr r25\n\t"
 184:../../src/kernel/source/nrk_error.c ****                         "clr r26\n\t"
 185:../../src/kernel/source/nrk_error.c ****                         "clr r27\n\t"
 186:../../src/kernel/source/nrk_error.c ****                         "clr r28\n\t"
 187:../../src/kernel/source/nrk_error.c ****                         "clr r29\n\t"
 188:../../src/kernel/source/nrk_error.c ****                         "clr r30\n\t"
 189:../../src/kernel/source/nrk_error.c ****                         "clr r31\n\t"
 190:../../src/kernel/source/nrk_error.c ****                         "cli\n\t"
 191:../../src/kernel/source/nrk_error.c ****                         "out __SREG__, r0\n\t"
 192:../../src/kernel/source/nrk_error.c ****                         "jmp __ctors_end\n\t"
 193:../../src/kernel/source/nrk_error.c ****                         ::);
 194:../../src/kernel/source/nrk_error.c **** #endif
 195:../../src/kernel/source/nrk_error.c **** 
 196:../../src/kernel/source/nrk_error.c **** #ifdef NRK_REBOOT_ON_ERROR
 197:../../src/kernel/source/nrk_error.c ****         // wait for watchdog to kick in
 198:../../src/kernel/source/nrk_error.c ****         if(error_num!=NRK_WATCHDOG_ERROR && error_num!=NRK_BOD_ERROR && error_num!=NRK_EXT_RST_ERRO
 199:../../src/kernel/source/nrk_error.c ****         {
 200:../../src/kernel/source/nrk_error.c **** 	    clear_regs();
 201:../../src/kernel/source/nrk_error.c **** 	    #ifdef NRK_REPORT_ERRORS
 202:../../src/kernel/source/nrk_error.c **** 	    nrk_kprintf(PSTR("NRK Reboot...\r\n" ));
 203:../../src/kernel/source/nrk_error.c **** 	    #endif NRK_REPORT_ERRORS
 204:../../src/kernel/source/nrk_error.c ****             nrk_watchdog_enable();
 205:../../src/kernel/source/nrk_error.c ****             nrk_int_disable();
 206:../../src/kernel/source/nrk_error.c ****             while(1);
 207:../../src/kernel/source/nrk_error.c ****         }
 208:../../src/kernel/source/nrk_error.c **** #endif
 209:../../src/kernel/source/nrk_error.c **** 
 210:../../src/kernel/source/nrk_error.c **** 
 211:../../src/kernel/source/nrk_error.c **** 
 212:../../src/kernel/source/nrk_error.c **** #ifdef NRK_HALT_ON_ERROR
 213:../../src/kernel/source/nrk_error.c ****     nrk_watchdog_disable();
 214:../../src/kernel/source/nrk_error.c ****     nrk_int_disable ();
 215:../../src/kernel/source/nrk_error.c ****     nrk_kprintf( PSTR("NRK Halt...\r\n" ));
 216:../../src/kernel/source/nrk_error.c **** 
 217:../../src/kernel/source/nrk_error.c ****     while (1)
 218:../../src/kernel/source/nrk_error.c ****     {
 219:../../src/kernel/source/nrk_error.c ****         for(i=0; i<20; i++ )
 220:../../src/kernel/source/nrk_error.c ****         {
 221:../../src/kernel/source/nrk_error.c ****             nrk_led_set (2);
 222:../../src/kernel/source/nrk_error.c ****             nrk_led_clr (3);
 223:../../src/kernel/source/nrk_error.c ****             for (t = 0; t < 100; t++)
 224:../../src/kernel/source/nrk_error.c ****                 nrk_spin_wait_us (1000);
 225:../../src/kernel/source/nrk_error.c ****             nrk_led_set (3);
 226:../../src/kernel/source/nrk_error.c ****             nrk_led_clr (2);
 227:../../src/kernel/source/nrk_error.c ****             for (t = 0; t < 100; t++)
 228:../../src/kernel/source/nrk_error.c ****                 nrk_spin_wait_us (1000);
 229:../../src/kernel/source/nrk_error.c ****         }
 230:../../src/kernel/source/nrk_error.c ****         nrk_led_clr (3);
 231:../../src/kernel/source/nrk_error.c ****         nrk_led_clr (2);
 232:../../src/kernel/source/nrk_error.c ****         blink_morse_code_error( error_task );
 233:../../src/kernel/source/nrk_error.c ****         pause();
 234:../../src/kernel/source/nrk_error.c ****         nrk_led_set(2);
 235:../../src/kernel/source/nrk_error.c ****         pause();
 236:../../src/kernel/source/nrk_error.c ****         nrk_led_clr(2);
 237:../../src/kernel/source/nrk_error.c ****         pause();
 238:../../src/kernel/source/nrk_error.c ****         blink_morse_code_error( error_num);
 239:../../src/kernel/source/nrk_error.c ****     }
 240:../../src/kernel/source/nrk_error.c **** 
 241:../../src/kernel/source/nrk_error.c **** #endif  /*  */
 242:../../src/kernel/source/nrk_error.c ****     error_num = 0;
 243:../../src/kernel/source/nrk_error.c **** 
 244:../../src/kernel/source/nrk_error.c **** 
 245:../../src/kernel/source/nrk_error.c **** }
 246:../../src/kernel/source/nrk_error.c **** 
 247:../../src/kernel/source/nrk_error.c **** 
 248:../../src/kernel/source/nrk_error.c **** inline int8_t nrk_error_print ()
 249:../../src/kernel/source/nrk_error.c **** {
 415               	.LM11:
 416               	.LFBB4:
 417               	/* prologue: function */
 418               	/* frame size = 0 */
 419               	/* stack size = 0 */
 420               	.L__stack_usage = 0
 250:../../src/kernel/source/nrk_error.c **** uint8_t i,t;
 251:../../src/kernel/source/nrk_error.c **** 
 252:../../src/kernel/source/nrk_error.c **** 
 253:../../src/kernel/source/nrk_error.c **** 
 254:../../src/kernel/source/nrk_error.c **** 
 255:../../src/kernel/source/nrk_error.c ****     if (error_num == 0)
 422               	.LM12:
 423 0030 8091 0000 		lds r24,error_num
 424 0034 8823      		tst r24
 425 0036 01F4      		brne .+2
 426 0038 00C0      		rjmp .L37
 427               	.LBB54:
 428               	.LBB55:
 256:../../src/kernel/source/nrk_error.c ****         return 0;
 257:../../src/kernel/source/nrk_error.c **** 
 258:../../src/kernel/source/nrk_error.c **** 
 259:../../src/kernel/source/nrk_error.c **** // If looping, we need to disable the watchdog and interrupts
 260:../../src/kernel/source/nrk_error.c **** #ifdef NRK_HALT_AND_LOOP_ON_ERROR
 261:../../src/kernel/source/nrk_error.c ****         nrk_int_disable ();
 262:../../src/kernel/source/nrk_error.c **** 	#ifdef NRK_WATCHDOG
 263:../../src/kernel/source/nrk_error.c ****     		nrk_watchdog_disable();
 264:../../src/kernel/source/nrk_error.c **** 	#endif
 265:../../src/kernel/source/nrk_error.c **** 
 266:../../src/kernel/source/nrk_error.c **** 
 267:../../src/kernel/source/nrk_error.c ****     while (1)
 268:../../src/kernel/source/nrk_error.c ****     {
 269:../../src/kernel/source/nrk_error.c **** 
 270:../../src/kernel/source/nrk_error.c **** #endif
 271:../../src/kernel/source/nrk_error.c **** 
 272:../../src/kernel/source/nrk_error.c ****         nrk_kprintf (PSTR ("*NRK ERROR("));
 430               	.LM13:
 431 003a 80E0      		ldi r24,lo8(__c.3328)
 432 003c 90E0      		ldi r25,hi8(__c.3328)
 433 003e 0E94 0000 		call nrk_kprintf
 273:../../src/kernel/source/nrk_error.c ****         printf ("%d", error_task);
 435               	.LM14:
 436 0042 8091 0000 		lds r24,error_task
 437 0046 1F92      		push __zero_reg__
 438 0048 8F93      		push r24
 439 004a 80E0      		ldi r24,lo8(.LC0)
 440 004c 90E0      		ldi r25,hi8(.LC0)
 441 004e 9F93      		push r25
 442 0050 8F93      		push r24
 443 0052 0E94 0000 		call printf
 274:../../src/kernel/source/nrk_error.c ****         nrk_kprintf (PSTR ("): "));
 445               	.LM15:
 446 0056 80E0      		ldi r24,lo8(__c.3330)
 447 0058 90E0      		ldi r25,hi8(__c.3330)
 448 005a 0E94 0000 		call nrk_kprintf
 275:../../src/kernel/source/nrk_error.c ****         if (error_num > NRK_NUM_ERRORS)
 450               	.LM16:
 451 005e 0F90      		pop __tmp_reg__
 452 0060 0F90      		pop __tmp_reg__
 453 0062 0F90      		pop __tmp_reg__
 454 0064 0F90      		pop __tmp_reg__
 455 0066 8091 0000 		lds r24,error_num
 456 006a 8831      		cpi r24,lo8(24)
 457 006c 00F0      		brlo .L11
 276:../../src/kernel/source/nrk_error.c ****             error_num = NRK_UNKOWN;
 459               	.LM17:
 460 006e 1092 0000 		sts error_num,__zero_reg__
 461               	.L11:
 277:../../src/kernel/source/nrk_error.c ****         switch (error_num)
 463               	.LM18:
 464 0072 E091 0000 		lds r30,error_num
 465 0076 8E2F      		mov r24,r30
 466 0078 90E0      		ldi r25,0
 467 007a FC01      		movw r30,r24
 468 007c 3197      		sbiw r30,1
 469 007e E631      		cpi r30,22
 470 0080 F105      		cpc r31,__zero_reg__
 471 0082 00F0      		brlo .+2
 472 0084 00C0      		rjmp .L12
 473 0086 E050      		subi r30,lo8(-(gs(.L14)))
 474 0088 F040      		sbci r31,hi8(-(gs(.L14)))
 475 008a 0C94 0000 		jmp __tablejump2__
 476               		.section	.progmem.gcc_sw_table,"a",@progbits
 477               		.p2align	1
 478               	.L14:
 479 0000 0000      		.word gs(.L13)
 480 0002 0000      		.word gs(.L15)
 481 0004 0000      		.word gs(.L16)
 482 0006 0000      		.word gs(.L17)
 483 0008 0000      		.word gs(.L18)
 484 000a 0000      		.word gs(.L19)
 485 000c 0000      		.word gs(.L20)
 486 000e 0000      		.word gs(.L21)
 487 0010 0000      		.word gs(.L22)
 488 0012 0000      		.word gs(.L23)
 489 0014 0000      		.word gs(.L24)
 490 0016 0000      		.word gs(.L25)
 491 0018 0000      		.word gs(.L26)
 492 001a 0000      		.word gs(.L27)
 493 001c 0000      		.word gs(.L28)
 494 001e 0000      		.word gs(.L29)
 495 0020 0000      		.word gs(.L30)
 496 0022 0000      		.word gs(.L31)
 497 0024 0000      		.word gs(.L32)
 498 0026 0000      		.word gs(.L33)
 499 0028 0000      		.word gs(.L34)
 500 002a 0000      		.word gs(.L35)
 501               		.text
 502               	.L35:
 278:../../src/kernel/source/nrk_error.c ****         {
 279:../../src/kernel/source/nrk_error.c ****         case NRK_PERIOD_OVERFLOW:
 280:../../src/kernel/source/nrk_error.c ****             nrk_kprintf (PSTR ("Task period too large. Period must be less than 61 seconds."));
 504               	.LM19:
 505 008e 80E0      		ldi r24,lo8(__c.3333)
 506 0090 90E0      		ldi r25,hi8(__c.3333)
 507 0092 00C0      		rjmp .L38
 508               	.L30:
 281:../../src/kernel/source/nrk_error.c ****             break;
 282:../../src/kernel/source/nrk_error.c ****         case NRK_STACK_TOO_SMALL:
 283:../../src/kernel/source/nrk_error.c ****             nrk_kprintf (PSTR ("Stack was not defined as large enough!"));
 510               	.LM20:
 511 0094 80E0      		ldi r24,lo8(__c.3337)
 512 0096 90E0      		ldi r25,hi8(__c.3337)
 513 0098 00C0      		rjmp .L38
 514               	.L13:
 284:../../src/kernel/source/nrk_error.c ****             break;
 285:../../src/kernel/source/nrk_error.c ****         case NRK_STACK_OVERFLOW:
 286:../../src/kernel/source/nrk_error.c ****             nrk_kprintf (PSTR ("Task Stack Overflow"));
 516               	.LM21:
 517 009a 80E0      		ldi r24,lo8(__c.3340)
 518 009c 90E0      		ldi r25,hi8(__c.3340)
 519 009e 00C0      		rjmp .L38
 520               	.L31:
 287:../../src/kernel/source/nrk_error.c ****             break;
 288:../../src/kernel/source/nrk_error.c ****         case NRK_INVALID_STACK_POINTER:
 289:../../src/kernel/source/nrk_error.c ****             nrk_kprintf (PSTR ("Invalid Stack Pointer"));
 522               	.LM22:
 523 00a0 80E0      		ldi r24,lo8(__c.3343)
 524 00a2 90E0      		ldi r25,hi8(__c.3343)
 525 00a4 00C0      		rjmp .L38
 526               	.L15:
 290:../../src/kernel/source/nrk_error.c ****             break;
 291:../../src/kernel/source/nrk_error.c ****         case NRK_RESERVE_ERROR:
 292:../../src/kernel/source/nrk_error.c ****             nrk_kprintf (PSTR ("Reserve Error in Scheduler"));
 528               	.LM23:
 529 00a6 80E0      		ldi r24,lo8(__c.3346)
 530 00a8 90E0      		ldi r25,hi8(__c.3346)
 531 00aa 00C0      		rjmp .L38
 532               	.L16:
 293:../../src/kernel/source/nrk_error.c ****             break;
 294:../../src/kernel/source/nrk_error.c ****         case NRK_RESERVE_VIOLATED:
 295:../../src/kernel/source/nrk_error.c ****             nrk_kprintf (PSTR ("Task Reserve Violated"));
 534               	.LM24:
 535 00ac 80E0      		ldi r24,lo8(__c.3349)
 536 00ae 90E0      		ldi r25,hi8(__c.3349)
 537 00b0 00C0      		rjmp .L38
 538               	.L17:
 296:../../src/kernel/source/nrk_error.c ****             break;
 297:../../src/kernel/source/nrk_error.c ****         case NRK_WAKEUP_MISSED:
 298:../../src/kernel/source/nrk_error.c ****             nrk_kprintf (PSTR ("Scheduler Missed Wakeup"));
 540               	.LM25:
 541 00b2 80E0      		ldi r24,lo8(__c.3352)
 542 00b4 90E0      		ldi r25,hi8(__c.3352)
 543 00b6 00C0      		rjmp .L38
 544               	.L18:
 299:../../src/kernel/source/nrk_error.c ****             break;
 300:../../src/kernel/source/nrk_error.c ****         case NRK_DUP_TASK_ID:
 301:../../src/kernel/source/nrk_error.c ****             nrk_kprintf (PSTR ("Duplicated Task ID"));
 546               	.LM26:
 547 00b8 80E0      		ldi r24,lo8(__c.3355)
 548 00ba 90E0      		ldi r25,hi8(__c.3355)
 549 00bc 00C0      		rjmp .L38
 550               	.L19:
 302:../../src/kernel/source/nrk_error.c ****             break;
 303:../../src/kernel/source/nrk_error.c ****         case NRK_BAD_STARTUP:
 304:../../src/kernel/source/nrk_error.c ****             nrk_kprintf (PSTR ("Unexpected Restart"));
 552               	.LM27:
 553 00be 80E0      		ldi r24,lo8(__c.3358)
 554 00c0 90E0      		ldi r25,hi8(__c.3358)
 555 00c2 00C0      		rjmp .L38
 556               	.L21:
 305:../../src/kernel/source/nrk_error.c ****             break;
 306:../../src/kernel/source/nrk_error.c ****         case NRK_STACK_SMASH:
 307:../../src/kernel/source/nrk_error.c ****             nrk_kprintf (PSTR ("Idle or Kernel Stack Overflow"));
 558               	.LM28:
 559 00c4 80E0      		ldi r24,lo8(__c.3361)
 560 00c6 90E0      		ldi r25,hi8(__c.3361)
 561 00c8 00C0      		rjmp .L38
 562               	.L20:
 308:../../src/kernel/source/nrk_error.c ****             break;
 309:../../src/kernel/source/nrk_error.c ****         case NRK_EXTRA_TASK:
 310:../../src/kernel/source/nrk_error.c ****             nrk_kprintf (PSTR ("Extra Task started, is nrk_cfg.h ok?"));
 564               	.LM29:
 565 00ca 80E0      		ldi r24,lo8(__c.3364)
 566 00cc 90E0      		ldi r25,hi8(__c.3364)
 567 00ce 00C0      		rjmp .L38
 568               	.L22:
 311:../../src/kernel/source/nrk_error.c ****             break;
 312:../../src/kernel/source/nrk_error.c ****         case NRK_LOW_VOLTAGE:
 313:../../src/kernel/source/nrk_error.c ****             nrk_kprintf (PSTR ("Low Voltage"));
 570               	.LM30:
 571 00d0 80E0      		ldi r24,lo8(__c.3367)
 572 00d2 90E0      		ldi r25,hi8(__c.3367)
 573 00d4 00C0      		rjmp .L38
 574               	.L23:
 314:../../src/kernel/source/nrk_error.c ****             break;
 315:../../src/kernel/source/nrk_error.c ****         case NRK_SEG_FAULT:
 316:../../src/kernel/source/nrk_error.c ****             nrk_kprintf (PSTR ("Unhandled Interrupt Vector"));
 576               	.LM31:
 577 00d6 80E0      		ldi r24,lo8(__c.3370)
 578 00d8 90E0      		ldi r25,hi8(__c.3370)
 579 00da 00C0      		rjmp .L38
 580               	.L24:
 317:../../src/kernel/source/nrk_error.c ****             break;
 318:../../src/kernel/source/nrk_error.c ****         case NRK_TIMER_OVERFLOW:
 319:../../src/kernel/source/nrk_error.c ****             nrk_kprintf (PSTR ("Timer Overflow"));
 582               	.LM32:
 583 00dc 80E0      		ldi r24,lo8(__c.3373)
 584 00de 90E0      		ldi r25,hi8(__c.3373)
 585 00e0 00C0      		rjmp .L38
 586               	.L34:
 320:../../src/kernel/source/nrk_error.c ****             break;
 321:../../src/kernel/source/nrk_error.c ****         case NRK_SW_WATCHDOG_ERROR:
 322:../../src/kernel/source/nrk_error.c ****             nrk_kprintf (PSTR ("SW Watchdog Restart"));
 588               	.LM33:
 589 00e2 80E0      		ldi r24,lo8(__c.3376)
 590 00e4 90E0      		ldi r25,hi8(__c.3376)
 591 00e6 00C0      		rjmp .L38
 592               	.L29:
 323:../../src/kernel/source/nrk_error.c ****             break;
 324:../../src/kernel/source/nrk_error.c ****         case NRK_WATCHDOG_ERROR:
 325:../../src/kernel/source/nrk_error.c ****             nrk_kprintf (PSTR ("Watchdog Restart"));
 594               	.LM34:
 595 00e8 80E0      		ldi r24,lo8(__c.3379)
 596 00ea 90E0      		ldi r25,hi8(__c.3379)
 597 00ec 00C0      		rjmp .L38
 598               	.L25:
 326:../../src/kernel/source/nrk_error.c ****             break;
 327:../../src/kernel/source/nrk_error.c ****         case NRK_DEVICE_DRIVER:
 328:../../src/kernel/source/nrk_error.c ****             nrk_kprintf (PSTR ("Device Driver Error"));
 600               	.LM35:
 601 00ee 80E0      		ldi r24,lo8(__c.3382)
 602 00f0 90E0      		ldi r25,hi8(__c.3382)
 603 00f2 00C0      		rjmp .L38
 604               	.L26:
 329:../../src/kernel/source/nrk_error.c ****             break;
 330:../../src/kernel/source/nrk_error.c ****         case NRK_UNIMPLEMENTED:
 331:../../src/kernel/source/nrk_error.c ****             nrk_kprintf (PSTR ("Kernel function not implemented"));
 606               	.LM36:
 607 00f4 80E0      		ldi r24,lo8(__c.3385)
 608 00f6 90E0      		ldi r25,hi8(__c.3385)
 609 00f8 00C0      		rjmp .L38
 610               	.L27:
 332:../../src/kernel/source/nrk_error.c ****             break;
 333:../../src/kernel/source/nrk_error.c ****         case NRK_SIGNAL_CREATE_ERROR:
 334:../../src/kernel/source/nrk_error.c ****             nrk_kprintf (PSTR ("Failed to create Signal"));
 612               	.LM37:
 613 00fa 80E0      		ldi r24,lo8(__c.3388)
 614 00fc 90E0      		ldi r25,hi8(__c.3388)
 615 00fe 00C0      		rjmp .L38
 616               	.L28:
 335:../../src/kernel/source/nrk_error.c ****             break;
 336:../../src/kernel/source/nrk_error.c ****         case NRK_SEMAPHORE_CREATE_ERROR:
 337:../../src/kernel/source/nrk_error.c ****             nrk_kprintf (PSTR ("Failed to create Semaphore"));
 618               	.LM38:
 619 0100 80E0      		ldi r24,lo8(__c.3391)
 620 0102 90E0      		ldi r25,hi8(__c.3391)
 621 0104 00C0      		rjmp .L38
 622               	.L32:
 338:../../src/kernel/source/nrk_error.c ****             break;
 339:../../src/kernel/source/nrk_error.c ****         case NRK_BOD_ERROR:
 340:../../src/kernel/source/nrk_error.c ****             nrk_kprintf (PSTR ("Brown Out Detect"));
 624               	.LM39:
 625 0106 80E0      		ldi r24,lo8(__c.3394)
 626 0108 90E0      		ldi r25,hi8(__c.3394)
 627 010a 00C0      		rjmp .L38
 628               	.L33:
 341:../../src/kernel/source/nrk_error.c ****             break;
 342:../../src/kernel/source/nrk_error.c ****         case NRK_EXT_RST_ERROR:
 343:../../src/kernel/source/nrk_error.c ****             nrk_kprintf (PSTR ("External Reset"));
 630               	.LM40:
 631 010c 80E0      		ldi r24,lo8(__c.3397)
 632 010e 90E0      		ldi r25,hi8(__c.3397)
 633 0110 00C0      		rjmp .L38
 634               	.L12:
 344:../../src/kernel/source/nrk_error.c ****             break;
 345:../../src/kernel/source/nrk_error.c ****         default:
 346:../../src/kernel/source/nrk_error.c ****             nrk_kprintf (PSTR ("UNKOWN"));
 636               	.LM41:
 637 0112 80E0      		ldi r24,lo8(__c.3400)
 638 0114 90E0      		ldi r25,hi8(__c.3400)
 639               	.L38:
 640 0116 0E94 0000 		call nrk_kprintf
 347:../../src/kernel/source/nrk_error.c ****         }
 348:../../src/kernel/source/nrk_error.c ****         putchar ('\r');
 642               	.LM42:
 643 011a 6091 0000 		lds r22,__iob+2
 644 011e 7091 0000 		lds r23,__iob+2+1
 645 0122 8DE0      		ldi r24,lo8(13)
 646 0124 90E0      		ldi r25,0
 647 0126 0E94 0000 		call fputc
 349:../../src/kernel/source/nrk_error.c ****         putchar ('\n');
 649               	.LM43:
 650 012a 6091 0000 		lds r22,__iob+2
 651 012e 7091 0000 		lds r23,__iob+2+1
 652 0132 8AE0      		ldi r24,lo8(10)
 653 0134 90E0      		ldi r25,0
 654 0136 0E94 0000 		call fputc
 350:../../src/kernel/source/nrk_error.c **** 
 351:../../src/kernel/source/nrk_error.c **** 
 352:../../src/kernel/source/nrk_error.c **** #ifdef NRK_HALT_AND_LOOP_ON_ERROR
 353:../../src/kernel/source/nrk_error.c ****         for(i=0; i<20; i++ )
 354:../../src/kernel/source/nrk_error.c ****         {
 355:../../src/kernel/source/nrk_error.c ****             nrk_led_set (2);
 356:../../src/kernel/source/nrk_error.c ****             nrk_led_clr (3);
 357:../../src/kernel/source/nrk_error.c ****             for (t = 0; t < 100; t++)
 358:../../src/kernel/source/nrk_error.c ****                 nrk_spin_wait_us (1000);
 359:../../src/kernel/source/nrk_error.c ****             nrk_led_set (3);
 360:../../src/kernel/source/nrk_error.c ****             nrk_led_clr (2);
 361:../../src/kernel/source/nrk_error.c ****             for (t = 0; t < 100; t++)
 362:../../src/kernel/source/nrk_error.c ****                 nrk_spin_wait_us (1000);
 363:../../src/kernel/source/nrk_error.c ****         }
 364:../../src/kernel/source/nrk_error.c **** 
 365:../../src/kernel/source/nrk_error.c ****         nrk_led_clr(2);
 366:../../src/kernel/source/nrk_error.c ****         nrk_led_clr(3);
 367:../../src/kernel/source/nrk_error.c ****         blink_morse_code_error( error_task );
 368:../../src/kernel/source/nrk_error.c ****         pause();
 369:../../src/kernel/source/nrk_error.c ****         nrk_led_set(2);
 370:../../src/kernel/source/nrk_error.c ****         pause();
 371:../../src/kernel/source/nrk_error.c ****         nrk_led_clr(2);
 372:../../src/kernel/source/nrk_error.c ****         pause();
 373:../../src/kernel/source/nrk_error.c ****         blink_morse_code_error( error_num);
 374:../../src/kernel/source/nrk_error.c **** }
 375:../../src/kernel/source/nrk_error.c **** 
 376:../../src/kernel/source/nrk_error.c **** 
 377:../../src/kernel/source/nrk_error.c **** #endif
 378:../../src/kernel/source/nrk_error.c **** 
 379:../../src/kernel/source/nrk_error.c ****     return error_num;
 656               	.LM44:
 657 013a 8091 0000 		lds r24,error_num
 658 013e 0895      		ret
 659               	.L37:
 660               	.LBE55:
 661               	.LBE54:
 256:../../src/kernel/source/nrk_error.c **** 
 663               	.LM45:
 664 0140 80E0      		ldi r24,0
 380:../../src/kernel/source/nrk_error.c **** }
 666               	.LM46:
 667 0142 0895      		ret
 669               	.Lscope4:
 671               		.stabd	78,0,0
 673               	.global	clear_regs
 675               	clear_regs:
 676               		.stabd	46,0,0
 381:../../src/kernel/source/nrk_error.c **** 
 382:../../src/kernel/source/nrk_error.c **** inline void clear_regs()
 383:../../src/kernel/source/nrk_error.c **** {
 678               	.LM47:
 679               	.LFBB5:
 680               	/* prologue: function */
 681               	/* frame size = 0 */
 682               	/* stack size = 0 */
 683               	.L__stack_usage = 0
 384:../../src/kernel/source/nrk_error.c **** 
 385:../../src/kernel/source/nrk_error.c ****         GTCCR=0;
 685               	.LM48:
 686 0144 13BC      		out 0x23,__zero_reg__
 386:../../src/kernel/source/nrk_error.c ****         ASSR=0;
 688               	.LM49:
 689 0146 1092 B600 		sts 182,__zero_reg__
 387:../../src/kernel/source/nrk_error.c **** 
 388:../../src/kernel/source/nrk_error.c ****         OCR0B=0;
 691               	.LM50:
 692 014a 18BC      		out 0x28,__zero_reg__
 389:../../src/kernel/source/nrk_error.c ****         OCR0A=0;
 694               	.LM51:
 695 014c 17BC      		out 0x27,__zero_reg__
 390:../../src/kernel/source/nrk_error.c ****         TCNT0=0;
 697               	.LM52:
 698 014e 16BC      		out 0x26,__zero_reg__
 391:../../src/kernel/source/nrk_error.c ****         TCCR0B=0;
 700               	.LM53:
 701 0150 15BC      		out 0x25,__zero_reg__
 392:../../src/kernel/source/nrk_error.c ****         TCCR0A=0;
 703               	.LM54:
 704 0152 14BC      		out 0x24,__zero_reg__
 393:../../src/kernel/source/nrk_error.c **** 
 394:../../src/kernel/source/nrk_error.c ****         EIMSK=0;
 706               	.LM55:
 707 0154 1DBA      		out 0x1d,__zero_reg__
 395:../../src/kernel/source/nrk_error.c ****         EIFR=0;
 709               	.LM56:
 710 0156 1CBA      		out 0x1c,__zero_reg__
 396:../../src/kernel/source/nrk_error.c ****         PCIFR=0;
 712               	.LM57:
 713 0158 1BBA      		out 0x1b,__zero_reg__
 397:../../src/kernel/source/nrk_error.c **** 
 398:../../src/kernel/source/nrk_error.c **** 
 399:../../src/kernel/source/nrk_error.c ****         OCR3B =0;
 715               	.LM58:
 716 015a 1092 9B00 		sts 154+1,__zero_reg__
 717 015e 1092 9A00 		sts 154,__zero_reg__
 400:../../src/kernel/source/nrk_error.c ****         OCR3A =0;
 719               	.LM59:
 720 0162 1092 9900 		sts 152+1,__zero_reg__
 721 0166 1092 9800 		sts 152,__zero_reg__
 401:../../src/kernel/source/nrk_error.c ****         TCNT3 =0;
 723               	.LM60:
 724 016a 1092 9500 		sts 148+1,__zero_reg__
 725 016e 1092 9400 		sts 148,__zero_reg__
 402:../../src/kernel/source/nrk_error.c ****         TCCR3B=0;
 727               	.LM61:
 728 0172 1092 9100 		sts 145,__zero_reg__
 403:../../src/kernel/source/nrk_error.c ****         TCCR3A=0;
 730               	.LM62:
 731 0176 1092 9000 		sts 144,__zero_reg__
 404:../../src/kernel/source/nrk_error.c ****         TIFR3=0;
 733               	.LM63:
 734 017a 18BA      		out 0x18,__zero_reg__
 405:../../src/kernel/source/nrk_error.c ****         TIMSK3=0;
 736               	.LM64:
 737 017c 1092 7100 		sts 113,__zero_reg__
 406:../../src/kernel/source/nrk_error.c **** 
 407:../../src/kernel/source/nrk_error.c **** 
 408:../../src/kernel/source/nrk_error.c ****         OCR2B =0;
 739               	.LM65:
 740 0180 1092 B400 		sts 180,__zero_reg__
 409:../../src/kernel/source/nrk_error.c ****         OCR2A =0;
 742               	.LM66:
 743 0184 1092 B300 		sts 179,__zero_reg__
 410:../../src/kernel/source/nrk_error.c ****         TCNT2 =0;
 745               	.LM67:
 746 0188 1092 B200 		sts 178,__zero_reg__
 411:../../src/kernel/source/nrk_error.c ****         TCCR2B=0;
 748               	.LM68:
 749 018c 1092 B100 		sts 177,__zero_reg__
 412:../../src/kernel/source/nrk_error.c ****         TCCR2A=0;
 751               	.LM69:
 752 0190 E0EB      		ldi r30,lo8(-80)
 753 0192 F0E0      		ldi r31,0
 754 0194 1082      		st Z,__zero_reg__
 413:../../src/kernel/source/nrk_error.c ****         TCCR2A=0;
 756               	.LM70:
 757 0196 1082      		st Z,__zero_reg__
 414:../../src/kernel/source/nrk_error.c ****         TIFR2=0;
 759               	.LM71:
 760 0198 17BA      		out 0x17,__zero_reg__
 415:../../src/kernel/source/nrk_error.c ****         TIMSK2=0;
 762               	.LM72:
 763 019a 1092 7000 		sts 112,__zero_reg__
 416:../../src/kernel/source/nrk_error.c **** 
 417:../../src/kernel/source/nrk_error.c **** 
 418:../../src/kernel/source/nrk_error.c **** 	// set all bits to 1 in order to clear
 419:../../src/kernel/source/nrk_error.c **** 	MCUSR=0xff;
 765               	.LM73:
 766 019e 8FEF      		ldi r24,lo8(-1)
 767 01a0 84BF      		out 0x34,r24
 768 01a2 0895      		ret
 770               	.Lscope5:
 772               		.stabd	78,0,0
 774               	.global	pause
 776               	pause:
 777               		.stabd	46,0,0
 420:../../src/kernel/source/nrk_error.c **** 
 421:../../src/kernel/source/nrk_error.c **** }
 422:../../src/kernel/source/nrk_error.c **** 
 423:../../src/kernel/source/nrk_error.c **** void blink_dash()
 424:../../src/kernel/source/nrk_error.c **** {
 425:../../src/kernel/source/nrk_error.c ****     nrk_led_set (GREEN_LED);
 426:../../src/kernel/source/nrk_error.c ****     pause();
 427:../../src/kernel/source/nrk_error.c ****     pause();
 428:../../src/kernel/source/nrk_error.c ****     pause();
 429:../../src/kernel/source/nrk_error.c ****     nrk_led_clr(GREEN_LED);
 430:../../src/kernel/source/nrk_error.c ****     pause();
 431:../../src/kernel/source/nrk_error.c **** }
 432:../../src/kernel/source/nrk_error.c **** 
 433:../../src/kernel/source/nrk_error.c **** void blink_dot()
 434:../../src/kernel/source/nrk_error.c **** {
 435:../../src/kernel/source/nrk_error.c ****     nrk_led_set(GREEN_LED);
 436:../../src/kernel/source/nrk_error.c ****     pause();
 437:../../src/kernel/source/nrk_error.c ****     nrk_led_clr(GREEN_LED);
 438:../../src/kernel/source/nrk_error.c ****     pause();
 439:../../src/kernel/source/nrk_error.c **** }
 440:../../src/kernel/source/nrk_error.c **** 
 441:../../src/kernel/source/nrk_error.c **** 
 442:../../src/kernel/source/nrk_error.c **** void blink_morse_code_error( uint8_t number )
 443:../../src/kernel/source/nrk_error.c **** {
 444:../../src/kernel/source/nrk_error.c ****     uint8_t i;
 445:../../src/kernel/source/nrk_error.c ****     char str[3];
 446:../../src/kernel/source/nrk_error.c **** 
 447:../../src/kernel/source/nrk_error.c ****     sprintf( str,"%d",number );
 448:../../src/kernel/source/nrk_error.c **** 
 449:../../src/kernel/source/nrk_error.c ****     for(i=0; i<strlen(str); i++ )
 450:../../src/kernel/source/nrk_error.c ****     {
 451:../../src/kernel/source/nrk_error.c ****         switch( str[i])
 452:../../src/kernel/source/nrk_error.c ****         {
 453:../../src/kernel/source/nrk_error.c ****         case '0':
 454:../../src/kernel/source/nrk_error.c ****             blink_dash();
 455:../../src/kernel/source/nrk_error.c ****             blink_dash();
 456:../../src/kernel/source/nrk_error.c ****             blink_dash();
 457:../../src/kernel/source/nrk_error.c ****             blink_dash();
 458:../../src/kernel/source/nrk_error.c ****             blink_dash();
 459:../../src/kernel/source/nrk_error.c ****             break;
 460:../../src/kernel/source/nrk_error.c ****         case '1':
 461:../../src/kernel/source/nrk_error.c ****             blink_dot();
 462:../../src/kernel/source/nrk_error.c ****             blink_dash();
 463:../../src/kernel/source/nrk_error.c ****             blink_dash();
 464:../../src/kernel/source/nrk_error.c ****             blink_dash();
 465:../../src/kernel/source/nrk_error.c ****             blink_dash();
 466:../../src/kernel/source/nrk_error.c ****             break;
 467:../../src/kernel/source/nrk_error.c ****         case '2':
 468:../../src/kernel/source/nrk_error.c ****             blink_dot();
 469:../../src/kernel/source/nrk_error.c ****             blink_dot();
 470:../../src/kernel/source/nrk_error.c ****             blink_dash();
 471:../../src/kernel/source/nrk_error.c ****             blink_dash();
 472:../../src/kernel/source/nrk_error.c ****             blink_dash();
 473:../../src/kernel/source/nrk_error.c ****             break;
 474:../../src/kernel/source/nrk_error.c ****         case '3':
 475:../../src/kernel/source/nrk_error.c ****             blink_dot();
 476:../../src/kernel/source/nrk_error.c ****             blink_dot();
 477:../../src/kernel/source/nrk_error.c ****             blink_dot();
 478:../../src/kernel/source/nrk_error.c ****             blink_dash();
 479:../../src/kernel/source/nrk_error.c ****             blink_dash();
 480:../../src/kernel/source/nrk_error.c ****             break;
 481:../../src/kernel/source/nrk_error.c ****         case '4':
 482:../../src/kernel/source/nrk_error.c ****             blink_dot();
 483:../../src/kernel/source/nrk_error.c ****             blink_dot();
 484:../../src/kernel/source/nrk_error.c ****             blink_dot();
 485:../../src/kernel/source/nrk_error.c ****             blink_dot();
 486:../../src/kernel/source/nrk_error.c ****             blink_dash();
 487:../../src/kernel/source/nrk_error.c ****             break;
 488:../../src/kernel/source/nrk_error.c ****         case '5':
 489:../../src/kernel/source/nrk_error.c ****             blink_dot();
 490:../../src/kernel/source/nrk_error.c ****             blink_dot();
 491:../../src/kernel/source/nrk_error.c ****             blink_dot();
 492:../../src/kernel/source/nrk_error.c ****             blink_dot();
 493:../../src/kernel/source/nrk_error.c ****             blink_dot();
 494:../../src/kernel/source/nrk_error.c ****             break;
 495:../../src/kernel/source/nrk_error.c ****         case '6':
 496:../../src/kernel/source/nrk_error.c ****             blink_dash();
 497:../../src/kernel/source/nrk_error.c ****             blink_dot();
 498:../../src/kernel/source/nrk_error.c ****             blink_dot();
 499:../../src/kernel/source/nrk_error.c ****             blink_dot();
 500:../../src/kernel/source/nrk_error.c ****             blink_dot();
 501:../../src/kernel/source/nrk_error.c ****             break;
 502:../../src/kernel/source/nrk_error.c ****         case '7':
 503:../../src/kernel/source/nrk_error.c ****             blink_dash();
 504:../../src/kernel/source/nrk_error.c ****             blink_dash();
 505:../../src/kernel/source/nrk_error.c ****             blink_dot();
 506:../../src/kernel/source/nrk_error.c ****             blink_dot();
 507:../../src/kernel/source/nrk_error.c ****             blink_dot();
 508:../../src/kernel/source/nrk_error.c ****             break;
 509:../../src/kernel/source/nrk_error.c ****         case '8':
 510:../../src/kernel/source/nrk_error.c ****             blink_dash();
 511:../../src/kernel/source/nrk_error.c ****             blink_dash();
 512:../../src/kernel/source/nrk_error.c ****             blink_dash();
 513:../../src/kernel/source/nrk_error.c ****             blink_dot();
 514:../../src/kernel/source/nrk_error.c ****             blink_dot();
 515:../../src/kernel/source/nrk_error.c ****             break;
 516:../../src/kernel/source/nrk_error.c ****         case '9':
 517:../../src/kernel/source/nrk_error.c ****             blink_dash();
 518:../../src/kernel/source/nrk_error.c ****             blink_dash();
 519:../../src/kernel/source/nrk_error.c ****             blink_dash();
 520:../../src/kernel/source/nrk_error.c ****             blink_dash();
 521:../../src/kernel/source/nrk_error.c ****             blink_dot();
 522:../../src/kernel/source/nrk_error.c ****             break;
 523:../../src/kernel/source/nrk_error.c ****         }
 524:../../src/kernel/source/nrk_error.c ****         pause();
 525:../../src/kernel/source/nrk_error.c ****         pause();
 526:../../src/kernel/source/nrk_error.c ****         pause();
 527:../../src/kernel/source/nrk_error.c ****     }
 528:../../src/kernel/source/nrk_error.c **** 
 529:../../src/kernel/source/nrk_error.c **** }
 530:../../src/kernel/source/nrk_error.c **** 
 531:../../src/kernel/source/nrk_error.c **** void pause()
 532:../../src/kernel/source/nrk_error.c **** {
 779               	.LM74:
 780               	.LFBB6:
 781 01a4 CF93      		push r28
 782 01a6 DF93      		push r29
 783 01a8 1F92      		push __zero_reg__
 784 01aa CDB7      		in r28,__SP_L__
 785 01ac DEB7      		in r29,__SP_H__
 786               	/* prologue: function */
 787               	/* frame size = 1 */
 788               	/* stack size = 3 */
 789               	.L__stack_usage = 3
 533:../../src/kernel/source/nrk_error.c ****     volatile uint8_t t;
 534:../../src/kernel/source/nrk_error.c ****     for (t = 0; t < 100; t++)
 791               	.LM75:
 792 01ae 1982      		std Y+1,__zero_reg__
 793               	.L41:
 795               	.LM76:
 796 01b0 8981      		ldd r24,Y+1
 797 01b2 8436      		cpi r24,lo8(100)
 798 01b4 00F4      		brsh .L43
 535:../../src/kernel/source/nrk_error.c ****         nrk_spin_wait_us (2000);
 800               	.LM77:
 801 01b6 80ED      		ldi r24,lo8(-48)
 802 01b8 97E0      		ldi r25,lo8(7)
 803 01ba 0E94 0000 		call nrk_spin_wait_us
 534:../../src/kernel/source/nrk_error.c ****         nrk_spin_wait_us (2000);
 805               	.LM78:
 806 01be 8981      		ldd r24,Y+1
 807 01c0 8F5F      		subi r24,lo8(-(1))
 808 01c2 8983      		std Y+1,r24
 809 01c4 00C0      		rjmp .L41
 810               	.L43:
 811               	/* epilogue start */
 536:../../src/kernel/source/nrk_error.c **** }
 813               	.LM79:
 814 01c6 0F90      		pop __tmp_reg__
 815 01c8 DF91      		pop r29
 816 01ca CF91      		pop r28
 817 01cc 0895      		ret
 822               	.Lscope6:
 824               		.stabd	78,0,0
 826               	.global	blink_dash
 828               	blink_dash:
 829               		.stabd	46,0,0
 424:../../src/kernel/source/nrk_error.c ****     nrk_led_set (GREEN_LED);
 831               	.LM80:
 832               	.LFBB7:
 833               	/* prologue: function */
 834               	/* frame size = 0 */
 835               	/* stack size = 0 */
 836               	.L__stack_usage = 0
 425:../../src/kernel/source/nrk_error.c ****     pause();
 838               	.LM81:
 839 01ce 81E0      		ldi r24,lo8(1)
 840 01d0 90E0      		ldi r25,0
 841 01d2 0E94 0000 		call nrk_led_set
 426:../../src/kernel/source/nrk_error.c ****     pause();
 843               	.LM82:
 844 01d6 0E94 0000 		call pause
 427:../../src/kernel/source/nrk_error.c ****     pause();
 846               	.LM83:
 847 01da 0E94 0000 		call pause
 428:../../src/kernel/source/nrk_error.c ****     nrk_led_clr(GREEN_LED);
 849               	.LM84:
 850 01de 0E94 0000 		call pause
 429:../../src/kernel/source/nrk_error.c ****     pause();
 852               	.LM85:
 853 01e2 81E0      		ldi r24,lo8(1)
 854 01e4 90E0      		ldi r25,0
 855 01e6 0E94 0000 		call nrk_led_clr
 430:../../src/kernel/source/nrk_error.c **** }
 857               	.LM86:
 858 01ea 0C94 0000 		jmp pause
 860               	.Lscope7:
 862               		.stabd	78,0,0
 864               	.global	blink_dot
 866               	blink_dot:
 867               		.stabd	46,0,0
 434:../../src/kernel/source/nrk_error.c ****     nrk_led_set(GREEN_LED);
 869               	.LM87:
 870               	.LFBB8:
 871               	/* prologue: function */
 872               	/* frame size = 0 */
 873               	/* stack size = 0 */
 874               	.L__stack_usage = 0
 435:../../src/kernel/source/nrk_error.c ****     pause();
 876               	.LM88:
 877 01ee 81E0      		ldi r24,lo8(1)
 878 01f0 90E0      		ldi r25,0
 879 01f2 0E94 0000 		call nrk_led_set
 436:../../src/kernel/source/nrk_error.c ****     nrk_led_clr(GREEN_LED);
 881               	.LM89:
 882 01f6 0E94 0000 		call pause
 437:../../src/kernel/source/nrk_error.c ****     pause();
 884               	.LM90:
 885 01fa 81E0      		ldi r24,lo8(1)
 886 01fc 90E0      		ldi r25,0
 887 01fe 0E94 0000 		call nrk_led_clr
 438:../../src/kernel/source/nrk_error.c **** }
 889               	.LM91:
 890 0202 0C94 0000 		jmp pause
 892               	.Lscope8:
 894               		.stabd	78,0,0
 897               	.global	blink_morse_code_error
 899               	blink_morse_code_error:
 900               		.stabd	46,0,0
 443:../../src/kernel/source/nrk_error.c ****     uint8_t i;
 902               	.LM92:
 903               	.LFBB9:
 904 0206 FF92      		push r15
 905 0208 0F93      		push r16
 906 020a 1F93      		push r17
 907 020c CF93      		push r28
 908 020e DF93      		push r29
 909 0210 00D0      		rcall .
 910 0212 1F92      		push __zero_reg__
 911 0214 CDB7      		in r28,__SP_L__
 912 0216 DEB7      		in r29,__SP_H__
 913               	/* prologue: function */
 914               	/* frame size = 3 */
 915               	/* stack size = 8 */
 916               	.L__stack_usage = 8
 447:../../src/kernel/source/nrk_error.c **** 
 918               	.LM93:
 919 0218 1F92      		push __zero_reg__
 920 021a 8F93      		push r24
 921 021c 80E0      		ldi r24,lo8(.LC0)
 922 021e 90E0      		ldi r25,hi8(.LC0)
 923 0220 9F93      		push r25
 924 0222 8F93      		push r24
 925 0224 8E01      		movw r16,r28
 926 0226 0F5F      		subi r16,-1
 927 0228 1F4F      		sbci r17,-1
 928 022a 1F93      		push r17
 929 022c 0F93      		push r16
 930 022e 0E94 0000 		call sprintf
 449:../../src/kernel/source/nrk_error.c ****     {
 932               	.LM94:
 933 0232 0F90      		pop __tmp_reg__
 934 0234 0F90      		pop __tmp_reg__
 935 0236 0F90      		pop __tmp_reg__
 936 0238 0F90      		pop __tmp_reg__
 937 023a 0F90      		pop __tmp_reg__
 938 023c 0F90      		pop __tmp_reg__
 939 023e F12C      		mov r15,__zero_reg__
 940               	.L47:
 449:../../src/kernel/source/nrk_error.c ****     {
 942               	.LM95:
 943 0240 F801      		movw r30,r16
 944               		0:
 945 0242 0190      		ld __tmp_reg__,Z+
 946 0244 0020      		tst __tmp_reg__
 947 0246 01F4      		brne 0b
 948 0248 3197      		sbiw r30,1
 949 024a E01B      		sub r30,r16
 950 024c F10B      		sbc r31,r17
 951 024e 8F2D      		mov r24,r15
 952 0250 90E0      		ldi r25,0
 953 0252 8E17      		cp r24,r30
 954 0254 9F07      		cpc r25,r31
 955 0256 00F0      		brlo .+2
 956 0258 00C0      		rjmp .L69
 451:../../src/kernel/source/nrk_error.c ****         {
 958               	.LM96:
 959 025a F801      		movw r30,r16
 960 025c E80F      		add r30,r24
 961 025e F91F      		adc r31,r25
 962 0260 E081      		ld r30,Z
 963 0262 8E2F      		mov r24,r30
 964 0264 90E0      		ldi r25,0
 965 0266 FC01      		movw r30,r24
 966 0268 F097      		sbiw r30,48
 967 026a EA30      		cpi r30,10
 968 026c F105      		cpc r31,__zero_reg__
 969 026e 00F0      		brlo .+2
 970 0270 00C0      		rjmp .L48
 971 0272 E050      		subi r30,lo8(-(gs(.L50)))
 972 0274 F040      		sbci r31,hi8(-(gs(.L50)))
 973 0276 0C94 0000 		jmp __tablejump2__
 974               		.section	.progmem.gcc_sw_table,"a",@progbits
 975               		.p2align	1
 976               	.L50:
 977 002c 0000      		.word gs(.L49)
 978 002e 0000      		.word gs(.L51)
 979 0030 0000      		.word gs(.L52)
 980 0032 0000      		.word gs(.L53)
 981 0034 0000      		.word gs(.L54)
 982 0036 0000      		.word gs(.L55)
 983 0038 0000      		.word gs(.L56)
 984 003a 0000      		.word gs(.L57)
 985 003c 0000      		.word gs(.L58)
 986 003e 0000      		.word gs(.L59)
 987               		.text
 988               	.L49:
 454:../../src/kernel/source/nrk_error.c ****             blink_dash();
 990               	.LM97:
 991 027a 0E94 0000 		call blink_dash
 992 027e 00C0      		rjmp .L61
 993               	.L51:
 461:../../src/kernel/source/nrk_error.c ****             blink_dash();
 995               	.LM98:
 996 0280 0E94 0000 		call blink_dot
 997               	.L61:
 462:../../src/kernel/source/nrk_error.c ****             blink_dash();
 999               	.LM99:
 1000 0284 0E94 0000 		call blink_dash
 1001               	.L65:
 463:../../src/kernel/source/nrk_error.c ****             blink_dash();
 1003               	.LM100:
 1004 0288 0E94 0000 		call blink_dash
 1005               	.L64:
 464:../../src/kernel/source/nrk_error.c ****             blink_dash();
 1007               	.LM101:
 1008 028c 0E94 0000 		call blink_dash
 1009               	.L63:
 465:../../src/kernel/source/nrk_error.c ****             break;
 1011               	.LM102:
 1012 0290 0E94 0000 		call blink_dash
 466:../../src/kernel/source/nrk_error.c ****         case '2':
 1014               	.LM103:
 1015 0294 00C0      		rjmp .L48
 1016               	.L52:
 468:../../src/kernel/source/nrk_error.c ****             blink_dot();
 1018               	.LM104:
 1019 0296 0E94 0000 		call blink_dot
 469:../../src/kernel/source/nrk_error.c ****             blink_dash();
 1021               	.LM105:
 1022 029a 0E94 0000 		call blink_dot
 1023 029e 00C0      		rjmp .L65
 1024               	.L53:
 475:../../src/kernel/source/nrk_error.c ****             blink_dot();
 1026               	.LM106:
 1027 02a0 0E94 0000 		call blink_dot
 476:../../src/kernel/source/nrk_error.c ****             blink_dot();
 1029               	.LM107:
 1030 02a4 0E94 0000 		call blink_dot
 477:../../src/kernel/source/nrk_error.c ****             blink_dash();
 1032               	.LM108:
 1033 02a8 0E94 0000 		call blink_dot
 1034 02ac 00C0      		rjmp .L64
 1035               	.L54:
 482:../../src/kernel/source/nrk_error.c ****             blink_dot();
 1037               	.LM109:
 1038 02ae 0E94 0000 		call blink_dot
 483:../../src/kernel/source/nrk_error.c ****             blink_dot();
 1040               	.LM110:
 1041 02b2 0E94 0000 		call blink_dot
 484:../../src/kernel/source/nrk_error.c ****             blink_dot();
 1043               	.LM111:
 1044 02b6 0E94 0000 		call blink_dot
 485:../../src/kernel/source/nrk_error.c ****             blink_dash();
 1046               	.LM112:
 1047 02ba 0E94 0000 		call blink_dot
 1048 02be 00C0      		rjmp .L63
 1049               	.L55:
 489:../../src/kernel/source/nrk_error.c ****             blink_dot();
 1051               	.LM113:
 1052 02c0 0E94 0000 		call blink_dot
 1053 02c4 00C0      		rjmp .L68
 1054               	.L56:
 496:../../src/kernel/source/nrk_error.c ****             blink_dot();
 1056               	.LM114:
 1057 02c6 0E94 0000 		call blink_dash
 1058               	.L68:
 497:../../src/kernel/source/nrk_error.c ****             blink_dot();
 1060               	.LM115:
 1061 02ca 0E94 0000 		call blink_dot
 1062 02ce 00C0      		rjmp .L67
 1063               	.L57:
 503:../../src/kernel/source/nrk_error.c ****             blink_dash();
 1065               	.LM116:
 1066 02d0 0E94 0000 		call blink_dash
 504:../../src/kernel/source/nrk_error.c ****             blink_dot();
 1068               	.LM117:
 1069 02d4 0E94 0000 		call blink_dash
 1070               	.L67:
 505:../../src/kernel/source/nrk_error.c ****             blink_dot();
 1072               	.LM118:
 1073 02d8 0E94 0000 		call blink_dot
 1074 02dc 00C0      		rjmp .L66
 1075               	.L58:
 510:../../src/kernel/source/nrk_error.c ****             blink_dash();
 1077               	.LM119:
 1078 02de 0E94 0000 		call blink_dash
 511:../../src/kernel/source/nrk_error.c ****             blink_dash();
 1080               	.LM120:
 1081 02e2 0E94 0000 		call blink_dash
 512:../../src/kernel/source/nrk_error.c ****             blink_dot();
 1083               	.LM121:
 1084 02e6 0E94 0000 		call blink_dash
 1085               	.L66:
 513:../../src/kernel/source/nrk_error.c ****             blink_dot();
 1087               	.LM122:
 1088 02ea 0E94 0000 		call blink_dot
 1089 02ee 00C0      		rjmp .L62
 1090               	.L59:
 517:../../src/kernel/source/nrk_error.c ****             blink_dash();
 1092               	.LM123:
 1093 02f0 0E94 0000 		call blink_dash
 518:../../src/kernel/source/nrk_error.c ****             blink_dash();
 1095               	.LM124:
 1096 02f4 0E94 0000 		call blink_dash
 519:../../src/kernel/source/nrk_error.c ****             blink_dash();
 1098               	.LM125:
 1099 02f8 0E94 0000 		call blink_dash
 520:../../src/kernel/source/nrk_error.c ****             blink_dot();
 1101               	.LM126:
 1102 02fc 0E94 0000 		call blink_dash
 1103               	.L62:
 521:../../src/kernel/source/nrk_error.c ****             break;
 1105               	.LM127:
 1106 0300 0E94 0000 		call blink_dot
 1107               	.L48:
 524:../../src/kernel/source/nrk_error.c ****         pause();
 1109               	.LM128:
 1110 0304 0E94 0000 		call pause
 525:../../src/kernel/source/nrk_error.c ****         pause();
 1112               	.LM129:
 1113 0308 0E94 0000 		call pause
 526:../../src/kernel/source/nrk_error.c ****     }
 1115               	.LM130:
 1116 030c 0E94 0000 		call pause
 449:../../src/kernel/source/nrk_error.c ****     {
 1118               	.LM131:
 1119 0310 F394      		inc r15
 1120 0312 00C0      		rjmp .L47
 1121               	.L69:
 1122               	/* epilogue start */
 529:../../src/kernel/source/nrk_error.c **** 
 1124               	.LM132:
 1125 0314 0F90      		pop __tmp_reg__
 1126 0316 0F90      		pop __tmp_reg__
 1127 0318 0F90      		pop __tmp_reg__
 1128 031a DF91      		pop r29
 1129 031c CF91      		pop r28
 1130 031e 1F91      		pop r17
 1131 0320 0F91      		pop r16
 1132 0322 FF90      		pop r15
 1133 0324 0895      		ret
 1139               	.Lscope9:
 1141               		.stabd	78,0,0
 1143               	.global	nrk_error_handle
 1145               	nrk_error_handle:
 1146               		.stabd	46,0,0
 125:../../src/kernel/source/nrk_error.c **** 
 1148               	.LM133:
 1149               	.LFBB10:
 1150               	/* prologue: function */
 1151               	/* frame size = 0 */
 1152               	/* stack size = 0 */
 1153               	.L__stack_usage = 0
 132:../../src/kernel/source/nrk_error.c **** 	#ifdef NRK_WATCHDOG
 1155               	.LM134:
 1156 0326 0E94 0000 		call nrk_int_disable
 213:../../src/kernel/source/nrk_error.c ****     nrk_int_disable ();
 1158               	.LM135:
 1159 032a 0E94 0000 		call nrk_watchdog_disable
 214:../../src/kernel/source/nrk_error.c ****     nrk_kprintf( PSTR("NRK Halt...\r\n" ));
 1161               	.LM136:
 1162 032e 0E94 0000 		call nrk_int_disable
 215:../../src/kernel/source/nrk_error.c **** 
 1164               	.LM137:
 1165 0332 80E0      		ldi r24,lo8(__c.3312)
 1166 0334 90E0      		ldi r25,hi8(__c.3312)
 1167 0336 0E94 0000 		call nrk_kprintf
 1168               	.L74:
 125:../../src/kernel/source/nrk_error.c **** 
 1170               	.LM138:
 1171 033a C4E1      		ldi r28,lo8(20)
 1172               	.L73:
 221:../../src/kernel/source/nrk_error.c ****             nrk_led_clr (3);
 1174               	.LM139:
 1175 033c 82E0      		ldi r24,lo8(2)
 1176 033e 90E0      		ldi r25,0
 1177 0340 0E94 0000 		call nrk_led_set
 222:../../src/kernel/source/nrk_error.c ****             for (t = 0; t < 100; t++)
 1179               	.LM140:
 1180 0344 83E0      		ldi r24,lo8(3)
 1181 0346 90E0      		ldi r25,0
 1182 0348 0E94 0000 		call nrk_led_clr
 1183 034c D4E6      		ldi r29,lo8(100)
 1184               	.L71:
 224:../../src/kernel/source/nrk_error.c ****             nrk_led_set (3);
 1186               	.LM141:
 1187 034e 88EE      		ldi r24,lo8(-24)
 1188 0350 93E0      		ldi r25,lo8(3)
 1189 0352 0E94 0000 		call nrk_spin_wait_us
 1190 0356 D150      		subi r29,lo8(-(-1))
 223:../../src/kernel/source/nrk_error.c ****                 nrk_spin_wait_us (1000);
 1192               	.LM142:
 1193 0358 01F4      		brne .L71
 225:../../src/kernel/source/nrk_error.c ****             nrk_led_clr (2);
 1195               	.LM143:
 1196 035a 83E0      		ldi r24,lo8(3)
 1197 035c 90E0      		ldi r25,0
 1198 035e 0E94 0000 		call nrk_led_set
 226:../../src/kernel/source/nrk_error.c ****             for (t = 0; t < 100; t++)
 1200               	.LM144:
 1201 0362 82E0      		ldi r24,lo8(2)
 1202 0364 90E0      		ldi r25,0
 1203 0366 0E94 0000 		call nrk_led_clr
 1204 036a D4E6      		ldi r29,lo8(100)
 1205               	.L72:
 228:../../src/kernel/source/nrk_error.c ****         }
 1207               	.LM145:
 1208 036c 88EE      		ldi r24,lo8(-24)
 1209 036e 93E0      		ldi r25,lo8(3)
 1210 0370 0E94 0000 		call nrk_spin_wait_us
 1211 0374 D150      		subi r29,lo8(-(-1))
 227:../../src/kernel/source/nrk_error.c ****                 nrk_spin_wait_us (1000);
 1213               	.LM146:
 1214 0376 01F4      		brne .L72
 1215 0378 C150      		subi r28,lo8(-(-1))
 219:../../src/kernel/source/nrk_error.c ****         {
 1217               	.LM147:
 1218 037a 01F4      		brne .L73
 230:../../src/kernel/source/nrk_error.c ****         nrk_led_clr (2);
 1220               	.LM148:
 1221 037c 83E0      		ldi r24,lo8(3)
 1222 037e 90E0      		ldi r25,0
 1223 0380 0E94 0000 		call nrk_led_clr
 231:../../src/kernel/source/nrk_error.c ****         blink_morse_code_error( error_task );
 1225               	.LM149:
 1226 0384 82E0      		ldi r24,lo8(2)
 1227 0386 90E0      		ldi r25,0
 1228 0388 0E94 0000 		call nrk_led_clr
 232:../../src/kernel/source/nrk_error.c ****         pause();
 1230               	.LM150:
 1231 038c 8091 0000 		lds r24,error_task
 1232 0390 0E94 0000 		call blink_morse_code_error
 233:../../src/kernel/source/nrk_error.c ****         nrk_led_set(2);
 1234               	.LM151:
 1235 0394 0E94 0000 		call pause
 234:../../src/kernel/source/nrk_error.c ****         pause();
 1237               	.LM152:
 1238 0398 82E0      		ldi r24,lo8(2)
 1239 039a 90E0      		ldi r25,0
 1240 039c 0E94 0000 		call nrk_led_set
 235:../../src/kernel/source/nrk_error.c ****         nrk_led_clr(2);
 1242               	.LM153:
 1243 03a0 0E94 0000 		call pause
 236:../../src/kernel/source/nrk_error.c ****         pause();
 1245               	.LM154:
 1246 03a4 82E0      		ldi r24,lo8(2)
 1247 03a6 90E0      		ldi r25,0
 1248 03a8 0E94 0000 		call nrk_led_clr
 237:../../src/kernel/source/nrk_error.c ****         blink_morse_code_error( error_num);
 1250               	.LM155:
 1251 03ac 0E94 0000 		call pause
 238:../../src/kernel/source/nrk_error.c ****     }
 1253               	.LM156:
 1254 03b0 8091 0000 		lds r24,error_num
 1255 03b4 0E94 0000 		call blink_morse_code_error
 239:../../src/kernel/source/nrk_error.c **** 
 1257               	.LM157:
 1258 03b8 00C0      		rjmp .L74
 1260               	.Lscope10:
 1262               		.stabd	78,0,0
 1265               	.global	nrk_error_add
 1267               	nrk_error_add:
 1268               		.stabd	46,0,0
  80:../../src/kernel/source/nrk_error.c ****     error_num = n;
 1270               	.LM158:
 1271               	.LFBB11:
 1272               	/* prologue: function */
 1273               	/* frame size = 0 */
 1274               	/* stack size = 0 */
 1275               	.L__stack_usage = 0
  81:../../src/kernel/source/nrk_error.c ****     error_task = nrk_cur_task_TCB->task_ID;
 1277               	.LM159:
 1278 03ba 8093 0000 		sts error_num,r24
  82:../../src/kernel/source/nrk_error.c **** 
 1280               	.LM160:
 1281 03be E091 0000 		lds r30,nrk_cur_task_TCB
 1282 03c2 F091 0000 		lds r31,nrk_cur_task_TCB+1
 1283 03c6 8085      		ldd r24,Z+8
 1284 03c8 8093 0000 		sts error_task,r24
  89:../../src/kernel/source/nrk_error.c **** #endif 
 1286               	.LM161:
 1287 03cc 0E94 0000 		call nrk_error_print
  92:../../src/kernel/source/nrk_error.c **** 
 1289               	.LM162:
 1290 03d0 0E94 0000 		call nrk_error_handle
 1292               	.Lscope11:
 1294               		.stabd	78,0,0
 1298               	.global	nrk_kernel_error_add
 1300               	nrk_kernel_error_add:
 1301               		.stabd	46,0,0
  97:../../src/kernel/source/nrk_error.c ****     error_num = n;
 1303               	.LM163:
 1304               	.LFBB12:
 1305               	/* prologue: function */
 1306               	/* frame size = 0 */
 1307               	/* stack size = 0 */
 1308               	.L__stack_usage = 0
  98:../../src/kernel/source/nrk_error.c ****     error_task = task;
 1310               	.LM164:
 1311 03d4 8093 0000 		sts error_num,r24
  99:../../src/kernel/source/nrk_error.c **** 
 1313               	.LM165:
 1314 03d8 6093 0000 		sts error_task,r22
 106:../../src/kernel/source/nrk_error.c **** #endif 
 1316               	.LM166:
 1317 03dc 0E94 0000 		call nrk_error_print
 109:../../src/kernel/source/nrk_error.c **** 
 1319               	.LM167:
 1320 03e0 0E94 0000 		call nrk_error_handle
 1322               	.Lscope12:
 1324               		.stabd	78,0,0
 1325               		.section	.progmem.data,"a",@progbits
 1328               	__c.3400:
 1329 0000 554E 4B4F 		.string	"UNKOWN"
 1329      574E 00
 1332               	__c.3397:
 1333 0007 4578 7465 		.string	"External Reset"
 1333      726E 616C 
 1333      2052 6573 
 1333      6574 00
 1336               	__c.3394:
 1337 0016 4272 6F77 		.string	"Brown Out Detect"
 1337      6E20 4F75 
 1337      7420 4465 
 1337      7465 6374 
 1337      00
 1340               	__c.3391:
 1341 0027 4661 696C 		.string	"Failed to create Semaphore"
 1341      6564 2074 
 1341      6F20 6372 
 1341      6561 7465 
 1341      2053 656D 
 1344               	__c.3388:
 1345 0042 4661 696C 		.string	"Failed to create Signal"
 1345      6564 2074 
 1345      6F20 6372 
 1345      6561 7465 
 1345      2053 6967 
 1348               	__c.3385:
 1349 005a 4B65 726E 		.string	"Kernel function not implemented"
 1349      656C 2066 
 1349      756E 6374 
 1349      696F 6E20 
 1349      6E6F 7420 
 1352               	__c.3382:
 1353 007a 4465 7669 		.string	"Device Driver Error"
 1353      6365 2044 
 1353      7269 7665 
 1353      7220 4572 
 1353      726F 7200 
 1356               	__c.3379:
 1357 008e 5761 7463 		.string	"Watchdog Restart"
 1357      6864 6F67 
 1357      2052 6573 
 1357      7461 7274 
 1357      00
 1360               	__c.3376:
 1361 009f 5357 2057 		.string	"SW Watchdog Restart"
 1361      6174 6368 
 1361      646F 6720 
 1361      5265 7374 
 1361      6172 7400 
 1364               	__c.3373:
 1365 00b3 5469 6D65 		.string	"Timer Overflow"
 1365      7220 4F76 
 1365      6572 666C 
 1365      6F77 00
 1368               	__c.3370:
 1369 00c2 556E 6861 		.string	"Unhandled Interrupt Vector"
 1369      6E64 6C65 
 1369      6420 496E 
 1369      7465 7272 
 1369      7570 7420 
 1372               	__c.3367:
 1373 00dd 4C6F 7720 		.string	"Low Voltage"
 1373      566F 6C74 
 1373      6167 6500 
 1376               	__c.3364:
 1377 00e9 4578 7472 		.string	"Extra Task started, is nrk_cfg.h ok?"
 1377      6120 5461 
 1377      736B 2073 
 1377      7461 7274 
 1377      6564 2C20 
 1380               	__c.3361:
 1381 010e 4964 6C65 		.string	"Idle or Kernel Stack Overflow"
 1381      206F 7220 
 1381      4B65 726E 
 1381      656C 2053 
 1381      7461 636B 
 1384               	__c.3358:
 1385 012c 556E 6578 		.string	"Unexpected Restart"
 1385      7065 6374 
 1385      6564 2052 
 1385      6573 7461 
 1385      7274 00
 1388               	__c.3355:
 1389 013f 4475 706C 		.string	"Duplicated Task ID"
 1389      6963 6174 
 1389      6564 2054 
 1389      6173 6B20 
 1389      4944 00
 1392               	__c.3352:
 1393 0152 5363 6865 		.string	"Scheduler Missed Wakeup"
 1393      6475 6C65 
 1393      7220 4D69 
 1393      7373 6564 
 1393      2057 616B 
 1396               	__c.3349:
 1397 016a 5461 736B 		.string	"Task Reserve Violated"
 1397      2052 6573 
 1397      6572 7665 
 1397      2056 696F 
 1397      6C61 7465 
 1400               	__c.3346:
 1401 0180 5265 7365 		.string	"Reserve Error in Scheduler"
 1401      7276 6520 
 1401      4572 726F 
 1401      7220 696E 
 1401      2053 6368 
 1404               	__c.3343:
 1405 019b 496E 7661 		.string	"Invalid Stack Pointer"
 1405      6C69 6420 
 1405      5374 6163 
 1405      6B20 506F 
 1405      696E 7465 
 1408               	__c.3340:
 1409 01b1 5461 736B 		.string	"Task Stack Overflow"
 1409      2053 7461 
 1409      636B 204F 
 1409      7665 7266 
 1409      6C6F 7700 
 1412               	__c.3337:
 1413 01c5 5374 6163 		.string	"Stack was not defined as large enough!"
 1413      6B20 7761 
 1413      7320 6E6F 
 1413      7420 6465 
 1413      6669 6E65 
 1416               	__c.3333:
 1417 01ec 5461 736B 		.string	"Task period too large. Period must be less than 61 seconds."
 1417      2070 6572 
 1417      696F 6420 
 1417      746F 6F20 
 1417      6C61 7267 
 1420               	__c.3330:
 1421 0228 293A 2000 		.string	"): "
 1424               	__c.3328:
 1425 022c 2A4E 524B 		.string	"*NRK ERROR("
 1425      2045 5252 
 1425      4F52 2800 
 1428               	__c.3312:
 1429 0238 4E52 4B20 		.string	"NRK Halt...\r\n"
 1429      4861 6C74 
 1429      2E2E 2E0D 
 1429      0A00 
 1430               		.comm	app_timer0_prescale,1,1
 1431               		.comm	app_timer0_callback,2,1
 1432               		.comm	_nrk_time_trigger,1,1
 1433               		.comm	_nrk_prev_timer_val,1,1
 1434               		.comm	nrk_kernel_stk_ptr,2,1
 1435               		.comm	nrk_idle_task_stk,128,1
 1436               		.comm	error_num,1,1
 1437               		.comm	error_task,1,1
 1438               		.comm	_nrk_signal_list,4,1
 1448               		.text
 1450               	.Letext0:
 1451               		.ident	"GCC: (GNU) 4.9.1"
 1452               	.global __do_copy_data
 1453               	.global __do_clear_bss
DEFINED SYMBOLS
                            *ABS*:0000000000000000 nrk_error.c
/var/folders/5w/cgn1dq610yqf6q25zlv0gqm40000gn/T//cc1iCAW3.s:2      *ABS*:000000000000003e __SP_H__
/var/folders/5w/cgn1dq610yqf6q25zlv0gqm40000gn/T//cc1iCAW3.s:3      *ABS*:000000000000003d __SP_L__
/var/folders/5w/cgn1dq610yqf6q25zlv0gqm40000gn/T//cc1iCAW3.s:4      *ABS*:000000000000003f __SREG__
/var/folders/5w/cgn1dq610yqf6q25zlv0gqm40000gn/T//cc1iCAW3.s:5      *ABS*:000000000000003b __RAMPZ__
/var/folders/5w/cgn1dq610yqf6q25zlv0gqm40000gn/T//cc1iCAW3.s:6      *ABS*:0000000000000000 __tmp_reg__
/var/folders/5w/cgn1dq610yqf6q25zlv0gqm40000gn/T//cc1iCAW3.s:7      *ABS*:0000000000000001 __zero_reg__
/var/folders/5w/cgn1dq610yqf6q25zlv0gqm40000gn/T//cc1iCAW3.s:323    .text:0000000000000000 _nrk_errno_set
/var/folders/5w/cgn1dq610yqf6q25zlv0gqm40000gn/T//cc1iCAW3.s:345    .text:000000000000000c nrk_errno_get
/var/folders/5w/cgn1dq610yqf6q25zlv0gqm40000gn/T//cc1iCAW3.s:371    .text:0000000000000018 nrk_error_get
                            *COM*:0000000000000001 error_num
                            *COM*:0000000000000001 error_task
/var/folders/5w/cgn1dq610yqf6q25zlv0gqm40000gn/T//cc1iCAW3.s:412    .text:0000000000000030 nrk_error_print
/var/folders/5w/cgn1dq610yqf6q25zlv0gqm40000gn/T//cc1iCAW3.s:1424   .progmem.data:000000000000022c __c.3328
/var/folders/5w/cgn1dq610yqf6q25zlv0gqm40000gn/T//cc1iCAW3.s:1420   .progmem.data:0000000000000228 __c.3330
/var/folders/5w/cgn1dq610yqf6q25zlv0gqm40000gn/T//cc1iCAW3.s:1416   .progmem.data:00000000000001ec __c.3333
/var/folders/5w/cgn1dq610yqf6q25zlv0gqm40000gn/T//cc1iCAW3.s:1412   .progmem.data:00000000000001c5 __c.3337
/var/folders/5w/cgn1dq610yqf6q25zlv0gqm40000gn/T//cc1iCAW3.s:1408   .progmem.data:00000000000001b1 __c.3340
/var/folders/5w/cgn1dq610yqf6q25zlv0gqm40000gn/T//cc1iCAW3.s:1404   .progmem.data:000000000000019b __c.3343
/var/folders/5w/cgn1dq610yqf6q25zlv0gqm40000gn/T//cc1iCAW3.s:1400   .progmem.data:0000000000000180 __c.3346
/var/folders/5w/cgn1dq610yqf6q25zlv0gqm40000gn/T//cc1iCAW3.s:1396   .progmem.data:000000000000016a __c.3349
/var/folders/5w/cgn1dq610yqf6q25zlv0gqm40000gn/T//cc1iCAW3.s:1392   .progmem.data:0000000000000152 __c.3352
/var/folders/5w/cgn1dq610yqf6q25zlv0gqm40000gn/T//cc1iCAW3.s:1388   .progmem.data:000000000000013f __c.3355
/var/folders/5w/cgn1dq610yqf6q25zlv0gqm40000gn/T//cc1iCAW3.s:1384   .progmem.data:000000000000012c __c.3358
/var/folders/5w/cgn1dq610yqf6q25zlv0gqm40000gn/T//cc1iCAW3.s:1380   .progmem.data:000000000000010e __c.3361
/var/folders/5w/cgn1dq610yqf6q25zlv0gqm40000gn/T//cc1iCAW3.s:1376   .progmem.data:00000000000000e9 __c.3364
/var/folders/5w/cgn1dq610yqf6q25zlv0gqm40000gn/T//cc1iCAW3.s:1372   .progmem.data:00000000000000dd __c.3367
/var/folders/5w/cgn1dq610yqf6q25zlv0gqm40000gn/T//cc1iCAW3.s:1368   .progmem.data:00000000000000c2 __c.3370
/var/folders/5w/cgn1dq610yqf6q25zlv0gqm40000gn/T//cc1iCAW3.s:1364   .progmem.data:00000000000000b3 __c.3373
/var/folders/5w/cgn1dq610yqf6q25zlv0gqm40000gn/T//cc1iCAW3.s:1360   .progmem.data:000000000000009f __c.3376
/var/folders/5w/cgn1dq610yqf6q25zlv0gqm40000gn/T//cc1iCAW3.s:1356   .progmem.data:000000000000008e __c.3379
/var/folders/5w/cgn1dq610yqf6q25zlv0gqm40000gn/T//cc1iCAW3.s:1352   .progmem.data:000000000000007a __c.3382
/var/folders/5w/cgn1dq610yqf6q25zlv0gqm40000gn/T//cc1iCAW3.s:1348   .progmem.data:000000000000005a __c.3385
/var/folders/5w/cgn1dq610yqf6q25zlv0gqm40000gn/T//cc1iCAW3.s:1344   .progmem.data:0000000000000042 __c.3388
/var/folders/5w/cgn1dq610yqf6q25zlv0gqm40000gn/T//cc1iCAW3.s:1340   .progmem.data:0000000000000027 __c.3391
/var/folders/5w/cgn1dq610yqf6q25zlv0gqm40000gn/T//cc1iCAW3.s:1336   .progmem.data:0000000000000016 __c.3394
/var/folders/5w/cgn1dq610yqf6q25zlv0gqm40000gn/T//cc1iCAW3.s:1332   .progmem.data:0000000000000007 __c.3397
/var/folders/5w/cgn1dq610yqf6q25zlv0gqm40000gn/T//cc1iCAW3.s:1328   .progmem.data:0000000000000000 __c.3400
/var/folders/5w/cgn1dq610yqf6q25zlv0gqm40000gn/T//cc1iCAW3.s:675    .text:0000000000000144 clear_regs
/var/folders/5w/cgn1dq610yqf6q25zlv0gqm40000gn/T//cc1iCAW3.s:776    .text:00000000000001a4 pause
/var/folders/5w/cgn1dq610yqf6q25zlv0gqm40000gn/T//cc1iCAW3.s:828    .text:00000000000001ce blink_dash
/var/folders/5w/cgn1dq610yqf6q25zlv0gqm40000gn/T//cc1iCAW3.s:866    .text:00000000000001ee blink_dot
/var/folders/5w/cgn1dq610yqf6q25zlv0gqm40000gn/T//cc1iCAW3.s:899    .text:0000000000000206 blink_morse_code_error
/var/folders/5w/cgn1dq610yqf6q25zlv0gqm40000gn/T//cc1iCAW3.s:1145   .text:0000000000000326 nrk_error_handle
/var/folders/5w/cgn1dq610yqf6q25zlv0gqm40000gn/T//cc1iCAW3.s:1428   .progmem.data:0000000000000238 __c.3312
/var/folders/5w/cgn1dq610yqf6q25zlv0gqm40000gn/T//cc1iCAW3.s:1267   .text:00000000000003ba nrk_error_add
/var/folders/5w/cgn1dq610yqf6q25zlv0gqm40000gn/T//cc1iCAW3.s:1300   .text:00000000000003d4 nrk_kernel_error_add
                            *COM*:0000000000000001 app_timer0_prescale
                            *COM*:0000000000000002 app_timer0_callback
                            *COM*:0000000000000001 _nrk_time_trigger
                            *COM*:0000000000000001 _nrk_prev_timer_val
                            *COM*:0000000000000002 nrk_kernel_stk_ptr
                            *COM*:0000000000000080 nrk_idle_task_stk
                            *COM*:0000000000000004 _nrk_signal_list

UNDEFINED SYMBOLS
nrk_cur_task_TCB
nrk_kprintf
printf
__tablejump2__
__iob
fputc
nrk_spin_wait_us
nrk_led_set
nrk_led_clr
sprintf
nrk_int_disable
nrk_watchdog_disable
__do_copy_data
__do_clear_bss
