   1               		.file	"basic_rf.c"
   2               	__SP_H__ = 0x3e
   3               	__SP_L__ = 0x3d
   4               	__SREG__ = 0x3f
   5               	__RAMPZ__ = 0x3b
   6               	__tmp_reg__ = 0
   7               	__zero_reg__ = 1
  10               		.text
  11               	.Ltext0:
 331               	rf_cmd:
 332               		.stabd	46,0,0
   1:../../src/radio/rf231_soc/source/basic_rf.c **** /******************************************************************************
   2:../../src/radio/rf231_soc/source/basic_rf.c **** *  Nano-RK, a real-time operating system for sensor networks.
   3:../../src/radio/rf231_soc/source/basic_rf.c **** *  Copyright (C) 2007, Real-Time and Multimedia Lab, Carnegie Mellon University
   4:../../src/radio/rf231_soc/source/basic_rf.c **** *  All rights reserved.
   5:../../src/radio/rf231_soc/source/basic_rf.c **** *
   6:../../src/radio/rf231_soc/source/basic_rf.c **** *  This is the Open Source Version of Nano-RK included as part of a Dual
   7:../../src/radio/rf231_soc/source/basic_rf.c **** *  Licensing Model. If you are unsure which license to use please refer to:
   8:../../src/radio/rf231_soc/source/basic_rf.c **** *  http://www.nanork.org/nano-RK/wiki/Licensing
   9:../../src/radio/rf231_soc/source/basic_rf.c **** *
  10:../../src/radio/rf231_soc/source/basic_rf.c **** *  This program is free software: you can redistribute it and/or modify
  11:../../src/radio/rf231_soc/source/basic_rf.c **** *  it under the terms of the GNU General Public License as published by
  12:../../src/radio/rf231_soc/source/basic_rf.c **** *  the Free Software Foundation, version 2.0 of the License.
  13:../../src/radio/rf231_soc/source/basic_rf.c **** *
  14:../../src/radio/rf231_soc/source/basic_rf.c **** *  This program is distributed in the hope that it will be useful,
  15:../../src/radio/rf231_soc/source/basic_rf.c **** *  but WITHOUT ANY WARRANTY; without even the implied warranty of
  16:../../src/radio/rf231_soc/source/basic_rf.c **** *  MERCHANTABILITY or FITNESS FOR A PARTICULAR PURPOSE.  See the
  17:../../src/radio/rf231_soc/source/basic_rf.c **** *  GNU General Public License for more details.
  18:../../src/radio/rf231_soc/source/basic_rf.c **** *
  19:../../src/radio/rf231_soc/source/basic_rf.c **** *  You should have received a copy of the GNU General Public License
  20:../../src/radio/rf231_soc/source/basic_rf.c **** *  along with this program.  If not, see <http://www.gnu.org/licenses/>.
  21:../../src/radio/rf231_soc/source/basic_rf.c **** *
  22:../../src/radio/rf231_soc/source/basic_rf.c **** *  Contributing Authors (specific to this file):
  23:../../src/radio/rf231_soc/source/basic_rf.c **** *  Maxim Buevich
  24:../../src/radio/rf231_soc/source/basic_rf.c **** *  Anthony Rowe
  25:../../src/radio/rf231_soc/source/basic_rf.c **** *******************************************************************************/
  26:../../src/radio/rf231_soc/source/basic_rf.c **** 
  27:../../src/radio/rf231_soc/source/basic_rf.c **** #include <include.h>
  28:../../src/radio/rf231_soc/source/basic_rf.c **** #include <basic_rf.h>
  29:../../src/radio/rf231_soc/source/basic_rf.c **** #include <ulib.h>
  30:../../src/radio/rf231_soc/source/basic_rf.c **** #include <nrk.h>
  31:../../src/radio/rf231_soc/source/basic_rf.c **** #include <nrk_events.h>
  32:../../src/radio/rf231_soc/source/basic_rf.c **** #include <nrk_error.h>
  33:../../src/radio/rf231_soc/source/basic_rf.c **** #include <nrk_timer.h>
  34:../../src/radio/rf231_soc/source/basic_rf.c **** #include <nrk_cpu.h>
  35:../../src/radio/rf231_soc/source/basic_rf.c **** #include <avr/wdt.h>
  36:../../src/radio/rf231_soc/source/basic_rf.c **** 
  37:../../src/radio/rf231_soc/source/basic_rf.c **** #define OSC_STARTUP_DELAY	1000
  38:../../src/radio/rf231_soc/source/basic_rf.c **** //#define RADIO_CC2591
  39:../../src/radio/rf231_soc/source/basic_rf.c **** //#define GLOSSY_TESTING
  40:../../src/radio/rf231_soc/source/basic_rf.c **** 
  41:../../src/radio/rf231_soc/source/basic_rf.c **** //#define RADIO_VERBOSE
  42:../../src/radio/rf231_soc/source/basic_rf.c **** #ifdef RADIO_VERBOSE
  43:../../src/radio/rf231_soc/source/basic_rf.c **** 	#define vprintf(...)		printf(__VA_ARGS__)
  44:../../src/radio/rf231_soc/source/basic_rf.c **** #else
  45:../../src/radio/rf231_soc/source/basic_rf.c **** 	#define vprintf(...) 	
  46:../../src/radio/rf231_soc/source/basic_rf.c **** #endif
  47:../../src/radio/rf231_soc/source/basic_rf.c **** 
  48:../../src/radio/rf231_soc/source/basic_rf.c **** 
  49:../../src/radio/rf231_soc/source/basic_rf.c **** typedef struct ieee_mac_fcf{
  50:../../src/radio/rf231_soc/source/basic_rf.c **** 	uint8_t frame_type: 		3;
  51:../../src/radio/rf231_soc/source/basic_rf.c **** 	uint8_t sec_en: 				1;
  52:../../src/radio/rf231_soc/source/basic_rf.c **** 	uint8_t frame_pending: 	1;
  53:../../src/radio/rf231_soc/source/basic_rf.c **** 	uint8_t ack_request: 		1;
  54:../../src/radio/rf231_soc/source/basic_rf.c **** 	uint8_t intra_pan: 			1;
  55:../../src/radio/rf231_soc/source/basic_rf.c **** 
  56:../../src/radio/rf231_soc/source/basic_rf.c **** 	uint8_t res:						3;	
  57:../../src/radio/rf231_soc/source/basic_rf.c **** 
  58:../../src/radio/rf231_soc/source/basic_rf.c **** 	uint8_t dest_addr_mode:	2;
  59:../../src/radio/rf231_soc/source/basic_rf.c **** 	uint8_t frame_version: 	2;
  60:../../src/radio/rf231_soc/source/basic_rf.c **** 	uint8_t src_addr_mode:	2;
  61:../../src/radio/rf231_soc/source/basic_rf.c **** } ieee_mac_fcf_t;
  62:../../src/radio/rf231_soc/source/basic_rf.c **** 
  63:../../src/radio/rf231_soc/source/basic_rf.c **** typedef struct ieee_mac_frame_header{	
  64:../../src/radio/rf231_soc/source/basic_rf.c **** 	ieee_mac_fcf_t fcf;
  65:../../src/radio/rf231_soc/source/basic_rf.c **** 	uint8_t seq_num;
  66:../../src/radio/rf231_soc/source/basic_rf.c **** 
  67:../../src/radio/rf231_soc/source/basic_rf.c **** 	uint16_t dest_pan_id;
  68:../../src/radio/rf231_soc/source/basic_rf.c **** 	uint16_t dest_addr;
  69:../../src/radio/rf231_soc/source/basic_rf.c **** 	//uint16_t src_pan_id;
  70:../../src/radio/rf231_soc/source/basic_rf.c **** 	uint16_t src_addr;
  71:../../src/radio/rf231_soc/source/basic_rf.c **** 	/*uint16_t sec_header; */
  72:../../src/radio/rf231_soc/source/basic_rf.c **** } ieee_mac_frame_header_t;
  73:../../src/radio/rf231_soc/source/basic_rf.c **** 
  74:../../src/radio/rf231_soc/source/basic_rf.c **** 
  75:../../src/radio/rf231_soc/source/basic_rf.c **** 
  76:../../src/radio/rf231_soc/source/basic_rf.c **** static void rf_cmd(uint8_t cmd);
  77:../../src/radio/rf231_soc/source/basic_rf.c **** void rf_glossy_interrupt();
  78:../../src/radio/rf231_soc/source/basic_rf.c **** 
  79:../../src/radio/rf231_soc/source/basic_rf.c **** #ifdef GLOSSLY_TESTING
  80:../../src/radio/rf231_soc/source/basic_rf.c **** 	void clear_packet_flags();
  81:../../src/radio/rf231_soc/source/basic_rf.c **** #endif
  82:../../src/radio/rf231_soc/source/basic_rf.c **** 
  83:../../src/radio/rf231_soc/source/basic_rf.c **** nrk_sem_t *radio_sem;
  84:../../src/radio/rf231_soc/source/basic_rf.c **** //uint8_t auto_ack_enable;
  85:../../src/radio/rf231_soc/source/basic_rf.c **** //uint8_t security_enable;
  86:../../src/radio/rf231_soc/source/basic_rf.c **** //uint8_t last_pkt_encrypted;
  87:../../src/radio/rf231_soc/source/basic_rf.c **** uint16_t mdmctrl0;
  88:../../src/radio/rf231_soc/source/basic_rf.c **** uint8_t tx_ctr[6];
  89:../../src/radio/rf231_soc/source/basic_rf.c **** uint8_t rx_ctr[4];
  90:../../src/radio/rf231_soc/source/basic_rf.c **** 
  91:../../src/radio/rf231_soc/source/basic_rf.c **** volatile RF_SETTINGS rfSettings;
  92:../../src/radio/rf231_soc/source/basic_rf.c **** uint8_t rf_ready;
  93:../../src/radio/rf231_soc/source/basic_rf.c **** volatile uint8_t rx_ready;
  94:../../src/radio/rf231_soc/source/basic_rf.c **** volatile uint8_t tx_done;
  95:../../src/radio/rf231_soc/source/basic_rf.c **** uint8_t use_glossy;
  96:../../src/radio/rf231_soc/source/basic_rf.c **** 
  97:../../src/radio/rf231_soc/source/basic_rf.c **** 
  98:../../src/radio/rf231_soc/source/basic_rf.c **** volatile void (*rx_start_func)(void) = 0;
  99:../../src/radio/rf231_soc/source/basic_rf.c **** volatile void (*rx_end_func)(void) = 0;
 100:../../src/radio/rf231_soc/source/basic_rf.c **** 
 101:../../src/radio/rf231_soc/source/basic_rf.c **** /* AES encryption and decryption key buffers */
 102:../../src/radio/rf231_soc/source/basic_rf.c **** uint8_t ekey[16];
 103:../../src/radio/rf231_soc/source/basic_rf.c **** uint8_t dkey[16];
 104:../../src/radio/rf231_soc/source/basic_rf.c **** 
 105:../../src/radio/rf231_soc/source/basic_rf.c **** /* wireless programming reset */
 106:../../src/radio/rf231_soc/source/basic_rf.c **** uint8_t wireless_prog = 0;
 107:../../src/radio/rf231_soc/source/basic_rf.c **** uint8_t reset_val[] = {0x43, 0x15, 0xa6, 0xd9, 0x3d, 0x31, 0x82, 0xf1, 0x8c, 0xa7, 0x4f, 0xc5, 0x99
 108:../../src/radio/rf231_soc/source/basic_rf.c **** 
 109:../../src/radio/rf231_soc/source/basic_rf.c **** 
 110:../../src/radio/rf231_soc/source/basic_rf.c **** void set_wireless_prog(uint8_t val)
 111:../../src/radio/rf231_soc/source/basic_rf.c **** {
 112:../../src/radio/rf231_soc/source/basic_rf.c ****    wireless_prog = val;
 113:../../src/radio/rf231_soc/source/basic_rf.c **** }
 114:../../src/radio/rf231_soc/source/basic_rf.c **** 
 115:../../src/radio/rf231_soc/source/basic_rf.c **** void rf_enable_glossy()
 116:../../src/radio/rf231_soc/source/basic_rf.c **** {
 117:../../src/radio/rf231_soc/source/basic_rf.c **** 	use_glossy = 1;
 118:../../src/radio/rf231_soc/source/basic_rf.c **** }
 119:../../src/radio/rf231_soc/source/basic_rf.c **** 
 120:../../src/radio/rf231_soc/source/basic_rf.c **** void rf_disable_glossy()
 121:../../src/radio/rf231_soc/source/basic_rf.c **** {
 122:../../src/radio/rf231_soc/source/basic_rf.c **** 	use_glossy = 0;
 123:../../src/radio/rf231_soc/source/basic_rf.c **** }
 124:../../src/radio/rf231_soc/source/basic_rf.c **** 
 125:../../src/radio/rf231_soc/source/basic_rf.c **** void rf_power_down()
 126:../../src/radio/rf231_soc/source/basic_rf.c **** {
 127:../../src/radio/rf231_soc/source/basic_rf.c **** 	uint8_t status;
 128:../../src/radio/rf231_soc/source/basic_rf.c **** 
 129:../../src/radio/rf231_soc/source/basic_rf.c **** 	while((TRX_STATUS & 0x1F) == STATE_TRANSITION_IN_PROGRESS)
 130:../../src/radio/rf231_soc/source/basic_rf.c **** 		continue;
 131:../../src/radio/rf231_soc/source/basic_rf.c **** 
 132:../../src/radio/rf231_soc/source/basic_rf.c **** 	/* For some reason comparing to SLEEP doesn't work, but 0 does */
 133:../../src/radio/rf231_soc/source/basic_rf.c **** 	status = (TRX_STATUS & 0x1F);
 134:../../src/radio/rf231_soc/source/basic_rf.c **** 	if((status == 0) || (status == 0xF))
 135:../../src/radio/rf231_soc/source/basic_rf.c **** 		return;
 136:../../src/radio/rf231_soc/source/basic_rf.c **** 	/* Disable TRX if it is enabled */
 137:../../src/radio/rf231_soc/source/basic_rf.c **** 	if((TRX_STATUS & 0x1F) != TRX_OFF){
 138:../../src/radio/rf231_soc/source/basic_rf.c **** 		rf_cmd(TRX_OFF);
 139:../../src/radio/rf231_soc/source/basic_rf.c **** 		do{
 140:../../src/radio/rf231_soc/source/basic_rf.c **** 			status = (TRX_STATUS & 0x1F);
 141:../../src/radio/rf231_soc/source/basic_rf.c **** 		}while(status != TRX_OFF);
 142:../../src/radio/rf231_soc/source/basic_rf.c **** 	}
 143:../../src/radio/rf231_soc/source/basic_rf.c **** 
 144:../../src/radio/rf231_soc/source/basic_rf.c **** 	TRXPR |= (1 << SLPTR);
 145:../../src/radio/rf231_soc/source/basic_rf.c **** 	do{
 146:../../src/radio/rf231_soc/source/basic_rf.c **** 		status = (TRX_STATUS & 0x1F);
 147:../../src/radio/rf231_soc/source/basic_rf.c **** 	}while((status != 0) && (status != 0xF));
 148:../../src/radio/rf231_soc/source/basic_rf.c **** }
 149:../../src/radio/rf231_soc/source/basic_rf.c **** 
 150:../../src/radio/rf231_soc/source/basic_rf.c **** void rf_power_up()
 151:../../src/radio/rf231_soc/source/basic_rf.c **** {
 152:../../src/radio/rf231_soc/source/basic_rf.c **** 	uint8_t status;
 153:../../src/radio/rf231_soc/source/basic_rf.c **** 
 154:../../src/radio/rf231_soc/source/basic_rf.c **** 	while((TRX_STATUS & 0x1F) == STATE_TRANSITION_IN_PROGRESS)
 155:../../src/radio/rf231_soc/source/basic_rf.c **** 		continue;
 156:../../src/radio/rf231_soc/source/basic_rf.c **** 	/* For some reason comparing to SLEEP doesn't work, but 0 does */
 157:../../src/radio/rf231_soc/source/basic_rf.c **** 	status = (TRX_STATUS & 0x1F);
 158:../../src/radio/rf231_soc/source/basic_rf.c **** 	if((status != 0) && (status != 0xF))
 159:../../src/radio/rf231_soc/source/basic_rf.c **** 		return;
 160:../../src/radio/rf231_soc/source/basic_rf.c **** 
 161:../../src/radio/rf231_soc/source/basic_rf.c **** 	/* Wake up */
 162:../../src/radio/rf231_soc/source/basic_rf.c **** 	TRXPR &= ~(1 << SLPTR);
 163:../../src/radio/rf231_soc/source/basic_rf.c **** 	while((TRX_STATUS & 0x1F) != TRX_OFF)
 164:../../src/radio/rf231_soc/source/basic_rf.c **** 		continue;
 165:../../src/radio/rf231_soc/source/basic_rf.c **** }
 166:../../src/radio/rf231_soc/source/basic_rf.c **** 
 167:../../src/radio/rf231_soc/source/basic_rf.c **** 
 168:../../src/radio/rf231_soc/source/basic_rf.c **** /* Safely change the radio state */
 169:../../src/radio/rf231_soc/source/basic_rf.c **** static void rf_cmd(uint8_t cmd)
 170:../../src/radio/rf231_soc/source/basic_rf.c **** {
 334               	.LM0:
 335               	.LFBB1:
 336               	/* prologue: function */
 337               	/* frame size = 0 */
 338               	/* stack size = 0 */
 339               	.L__stack_usage = 0
 340               	.L2:
 171:../../src/radio/rf231_soc/source/basic_rf.c **** 	while((TRX_STATUS & 0x1F) == STATE_TRANSITION_IN_PROGRESS)
 342               	.LM1:
 343 0000 9091 4101 		lds r25,321
 344 0004 9F71      		andi r25,lo8(31)
 345 0006 9F31      		cpi r25,lo8(31)
 346 0008 01F0      		breq .L2
 172:../../src/radio/rf231_soc/source/basic_rf.c **** 		continue;
 173:../../src/radio/rf231_soc/source/basic_rf.c **** 	TRX_STATE = cmd;
 348               	.LM2:
 349 000a 8093 4201 		sts 322,r24
 350 000e 0895      		ret
 352               	.Lscope1:
 354               		.stabd	78,0,0
 357               	.global	set_wireless_prog
 359               	set_wireless_prog:
 360               		.stabd	46,0,0
 111:../../src/radio/rf231_soc/source/basic_rf.c ****    wireless_prog = val;
 362               	.LM3:
 363               	.LFBB2:
 364               	/* prologue: function */
 365               	/* frame size = 0 */
 366               	/* stack size = 0 */
 367               	.L__stack_usage = 0
 112:../../src/radio/rf231_soc/source/basic_rf.c **** }
 369               	.LM4:
 370 0010 8093 0000 		sts wireless_prog,r24
 371 0014 0895      		ret
 373               	.Lscope2:
 375               		.stabd	78,0,0
 377               	.global	rf_enable_glossy
 379               	rf_enable_glossy:
 380               		.stabd	46,0,0
 116:../../src/radio/rf231_soc/source/basic_rf.c **** 	use_glossy = 1;
 382               	.LM5:
 383               	.LFBB3:
 384               	/* prologue: function */
 385               	/* frame size = 0 */
 386               	/* stack size = 0 */
 387               	.L__stack_usage = 0
 117:../../src/radio/rf231_soc/source/basic_rf.c **** }
 389               	.LM6:
 390 0016 81E0      		ldi r24,lo8(1)
 391 0018 8093 0000 		sts use_glossy,r24
 392 001c 0895      		ret
 394               	.Lscope3:
 396               		.stabd	78,0,0
 398               	.global	rf_disable_glossy
 400               	rf_disable_glossy:
 401               		.stabd	46,0,0
 121:../../src/radio/rf231_soc/source/basic_rf.c **** 	use_glossy = 0;
 403               	.LM7:
 404               	.LFBB4:
 405               	/* prologue: function */
 406               	/* frame size = 0 */
 407               	/* stack size = 0 */
 408               	.L__stack_usage = 0
 122:../../src/radio/rf231_soc/source/basic_rf.c **** }
 410               	.LM8:
 411 001e 1092 0000 		sts use_glossy,__zero_reg__
 412 0022 0895      		ret
 414               	.Lscope4:
 416               		.stabd	78,0,0
 418               	.global	rf_power_down
 420               	rf_power_down:
 421               		.stabd	46,0,0
 126:../../src/radio/rf231_soc/source/basic_rf.c **** 	uint8_t status;
 423               	.LM9:
 424               	.LFBB5:
 425               	/* prologue: function */
 426               	/* frame size = 0 */
 427               	/* stack size = 0 */
 428               	.L__stack_usage = 0
 429               	.L10:
 129:../../src/radio/rf231_soc/source/basic_rf.c **** 		continue;
 431               	.LM10:
 432 0024 8091 4101 		lds r24,321
 433 0028 8F71      		andi r24,lo8(31)
 434 002a 8F31      		cpi r24,lo8(31)
 435 002c 01F0      		breq .L10
 133:../../src/radio/rf231_soc/source/basic_rf.c **** 	if((status == 0) || (status == 0xF))
 437               	.LM11:
 438 002e 8091 4101 		lds r24,321
 439 0032 8F71      		andi r24,lo8(31)
 134:../../src/radio/rf231_soc/source/basic_rf.c **** 		return;
 441               	.LM12:
 442 0034 01F0      		breq .L9
 134:../../src/radio/rf231_soc/source/basic_rf.c **** 		return;
 444               	.LM13:
 445 0036 8F30      		cpi r24,lo8(15)
 446 0038 01F0      		breq .L9
 137:../../src/radio/rf231_soc/source/basic_rf.c **** 		rf_cmd(TRX_OFF);
 448               	.LM14:
 449 003a 8091 4101 		lds r24,321
 450 003e 8F71      		andi r24,lo8(31)
 451 0040 8830      		cpi r24,lo8(8)
 452 0042 01F4      		brne .L13
 453               	.L16:
 144:../../src/radio/rf231_soc/source/basic_rf.c **** 	do{
 455               	.LM15:
 456 0044 8091 3901 		lds r24,313
 457 0048 8260      		ori r24,lo8(2)
 458 004a 8093 3901 		sts 313,r24
 459 004e 00C0      		rjmp .L14
 460               	.L13:
 138:../../src/radio/rf231_soc/source/basic_rf.c **** 		do{
 462               	.LM16:
 463 0050 88E0      		ldi r24,lo8(8)
 464 0052 0E94 0000 		call rf_cmd
 465               	.L15:
 140:../../src/radio/rf231_soc/source/basic_rf.c **** 		}while(status != TRX_OFF);
 467               	.LM17:
 468 0056 8091 4101 		lds r24,321
 469 005a 8F71      		andi r24,lo8(31)
 141:../../src/radio/rf231_soc/source/basic_rf.c **** 	}
 471               	.LM18:
 472 005c 8830      		cpi r24,lo8(8)
 473 005e 01F4      		brne .L15
 474 0060 00C0      		rjmp .L16
 475               	.L27:
 147:../../src/radio/rf231_soc/source/basic_rf.c **** }
 477               	.LM19:
 478 0062 8F30      		cpi r24,lo8(15)
 479 0064 01F0      		breq .L9
 480               	.L14:
 146:../../src/radio/rf231_soc/source/basic_rf.c **** 	}while((status != 0) && (status != 0xF));
 482               	.LM20:
 483 0066 8091 4101 		lds r24,321
 484 006a 8F71      		andi r24,lo8(31)
 147:../../src/radio/rf231_soc/source/basic_rf.c **** }
 486               	.LM21:
 487 006c 01F4      		brne .L27
 488               	.L9:
 489 006e 0895      		ret
 491               	.Lscope5:
 493               		.stabd	78,0,0
 495               	.global	rf_power_up
 497               	rf_power_up:
 498               		.stabd	46,0,0
 151:../../src/radio/rf231_soc/source/basic_rf.c **** 	uint8_t status;
 500               	.LM22:
 501               	.LFBB6:
 502               	/* prologue: function */
 503               	/* frame size = 0 */
 504               	/* stack size = 0 */
 505               	.L__stack_usage = 0
 506               	.L29:
 154:../../src/radio/rf231_soc/source/basic_rf.c **** 		continue;
 508               	.LM23:
 509 0070 8091 4101 		lds r24,321
 510 0074 8F71      		andi r24,lo8(31)
 511 0076 8F31      		cpi r24,lo8(31)
 512 0078 01F0      		breq .L29
 157:../../src/radio/rf231_soc/source/basic_rf.c **** 	if((status != 0) && (status != 0xF))
 514               	.LM24:
 515 007a 8091 4101 		lds r24,321
 516 007e 8F71      		andi r24,lo8(31)
 158:../../src/radio/rf231_soc/source/basic_rf.c **** 		return;
 518               	.LM25:
 519 0080 01F0      		breq .L30
 158:../../src/radio/rf231_soc/source/basic_rf.c **** 		return;
 521               	.LM26:
 522 0082 8F30      		cpi r24,lo8(15)
 523 0084 01F4      		brne .L28
 524               	.L30:
 162:../../src/radio/rf231_soc/source/basic_rf.c **** 	while((TRX_STATUS & 0x1F) != TRX_OFF)
 526               	.LM27:
 527 0086 8091 3901 		lds r24,313
 528 008a 8D7F      		andi r24,lo8(-3)
 529 008c 8093 3901 		sts 313,r24
 530               	.L31:
 163:../../src/radio/rf231_soc/source/basic_rf.c **** 		continue;
 532               	.LM28:
 533 0090 8091 4101 		lds r24,321
 534 0094 8F71      		andi r24,lo8(31)
 535 0096 8830      		cpi r24,lo8(8)
 536 0098 01F4      		brne .L31
 537               	.L28:
 538 009a 0895      		ret
 543               	.Lscope6:
 545               		.stabd	78,0,0
 547               	.global	rf_pll_on
 549               	rf_pll_on:
 550               		.stabd	46,0,0
 174:../../src/radio/rf231_soc/source/basic_rf.c **** }
 175:../../src/radio/rf231_soc/source/basic_rf.c **** 
 176:../../src/radio/rf231_soc/source/basic_rf.c **** void rf_pll_on()
 177:../../src/radio/rf231_soc/source/basic_rf.c **** {
 552               	.LM29:
 553               	.LFBB7:
 554               	/* prologue: function */
 555               	/* frame size = 0 */
 556               	/* stack size = 0 */
 557               	.L__stack_usage = 0
 178:../../src/radio/rf231_soc/source/basic_rf.c ****    rf_cmd(PLL_ON);
 559               	.LM30:
 560 009c 89E0      		ldi r24,lo8(9)
 561 009e 0C94 0000 		jmp rf_cmd
 563               	.Lscope7:
 565               		.stabd	78,0,0
 568               	.global	rf_tx_power
 570               	rf_tx_power:
 571               		.stabd	46,0,0
 179:../../src/radio/rf231_soc/source/basic_rf.c **** }
 180:../../src/radio/rf231_soc/source/basic_rf.c **** 
 181:../../src/radio/rf231_soc/source/basic_rf.c **** 
 182:../../src/radio/rf231_soc/source/basic_rf.c **** void rf_tx_power(uint8_t pwr)
 183:../../src/radio/rf231_soc/source/basic_rf.c **** {
 573               	.LM31:
 574               	.LFBB8:
 575               	/* prologue: function */
 576               	/* frame size = 0 */
 577               	/* stack size = 0 */
 578               	.L__stack_usage = 0
 184:../../src/radio/rf231_soc/source/basic_rf.c **** 	PHY_TX_PWR &= 0xF0;
 580               	.LM32:
 581 00a2 E5E4      		ldi r30,lo8(69)
 582 00a4 F1E0      		ldi r31,lo8(1)
 583 00a6 9081      		ld r25,Z
 584 00a8 907F      		andi r25,lo8(-16)
 585 00aa 9083      		st Z,r25
 185:../../src/radio/rf231_soc/source/basic_rf.c **** 	PHY_TX_PWR |= (pwr & 0xF);
 587               	.LM33:
 588 00ac 9081      		ld r25,Z
 589 00ae 8F70      		andi r24,lo8(15)
 590 00b0 982B      		or r25,r24
 591 00b2 9083      		st Z,r25
 592 00b4 0895      		ret
 594               	.Lscope8:
 596               		.stabd	78,0,0
 598               	.global	rf_addr_decode_enable
 600               	rf_addr_decode_enable:
 601               		.stabd	46,0,0
 186:../../src/radio/rf231_soc/source/basic_rf.c **** }
 187:../../src/radio/rf231_soc/source/basic_rf.c **** 
 188:../../src/radio/rf231_soc/source/basic_rf.c **** void rf_addr_decode_enable()
 189:../../src/radio/rf231_soc/source/basic_rf.c **** {
 603               	.LM34:
 604               	.LFBB9:
 605               	/* prologue: function */
 606               	/* frame size = 0 */
 607               	/* stack size = 0 */
 608               	.L__stack_usage = 0
 190:../../src/radio/rf231_soc/source/basic_rf.c **** 	XAH_CTRL_1 &= ~(1 << AACK_PROM_MODE);
 610               	.LM35:
 611 00b6 E7E5      		ldi r30,lo8(87)
 612 00b8 F1E0      		ldi r31,lo8(1)
 613 00ba 8081      		ld r24,Z
 614 00bc 8D7F      		andi r24,lo8(-3)
 615 00be 8083      		st Z,r24
 616 00c0 0895      		ret
 618               	.Lscope9:
 620               		.stabd	78,0,0
 622               	.global	rf_addr_decode_disable
 624               	rf_addr_decode_disable:
 625               		.stabd	46,0,0
 191:../../src/radio/rf231_soc/source/basic_rf.c **** }
 192:../../src/radio/rf231_soc/source/basic_rf.c **** 
 193:../../src/radio/rf231_soc/source/basic_rf.c **** 
 194:../../src/radio/rf231_soc/source/basic_rf.c **** void rf_addr_decode_disable()
 195:../../src/radio/rf231_soc/source/basic_rf.c **** {
 627               	.LM36:
 628               	.LFBB10:
 629               	/* prologue: function */
 630               	/* frame size = 0 */
 631               	/* stack size = 0 */
 632               	.L__stack_usage = 0
 196:../../src/radio/rf231_soc/source/basic_rf.c **** 	XAH_CTRL_1 |= (1 << AACK_PROM_MODE);
 634               	.LM37:
 635 00c2 E7E5      		ldi r30,lo8(87)
 636 00c4 F1E0      		ldi r31,lo8(1)
 637 00c6 8081      		ld r24,Z
 638 00c8 8260      		ori r24,lo8(2)
 639 00ca 8083      		st Z,r24
 640 00cc 0895      		ret
 642               	.Lscope10:
 644               		.stabd	78,0,0
 646               	.global	rf_auto_ack_enable
 648               	rf_auto_ack_enable:
 649               		.stabd	46,0,0
 197:../../src/radio/rf231_soc/source/basic_rf.c **** }
 198:../../src/radio/rf231_soc/source/basic_rf.c **** 
 199:../../src/radio/rf231_soc/source/basic_rf.c **** 
 200:../../src/radio/rf231_soc/source/basic_rf.c **** void rf_auto_ack_enable()
 201:../../src/radio/rf231_soc/source/basic_rf.c **** {
 651               	.LM38:
 652               	.LFBB11:
 653               	/* prologue: function */
 654               	/* frame size = 0 */
 655               	/* stack size = 0 */
 656               	.L__stack_usage = 0
 202:../../src/radio/rf231_soc/source/basic_rf.c **** 	CSMA_SEED_1 &= ~(1 << AACK_DIS_ACK);
 658               	.LM39:
 659 00ce EEE6      		ldi r30,lo8(110)
 660 00d0 F1E0      		ldi r31,lo8(1)
 661 00d2 8081      		ld r24,Z
 662 00d4 8F7E      		andi r24,lo8(-17)
 663 00d6 8083      		st Z,r24
 664 00d8 0895      		ret
 666               	.Lscope11:
 668               		.stabd	78,0,0
 670               	.global	rf_auto_ack_disable
 672               	rf_auto_ack_disable:
 673               		.stabd	46,0,0
 203:../../src/radio/rf231_soc/source/basic_rf.c **** }
 204:../../src/radio/rf231_soc/source/basic_rf.c **** 
 205:../../src/radio/rf231_soc/source/basic_rf.c **** void rf_auto_ack_disable()
 206:../../src/radio/rf231_soc/source/basic_rf.c **** {
 675               	.LM40:
 676               	.LFBB12:
 677               	/* prologue: function */
 678               	/* frame size = 0 */
 679               	/* stack size = 0 */
 680               	.L__stack_usage = 0
 207:../../src/radio/rf231_soc/source/basic_rf.c **** 	CSMA_SEED_1 |= (1 << AACK_DIS_ACK);
 682               	.LM41:
 683 00da EEE6      		ldi r30,lo8(110)
 684 00dc F1E0      		ldi r31,lo8(1)
 685 00de 8081      		ld r24,Z
 686 00e0 8061      		ori r24,lo8(16)
 687 00e2 8083      		st Z,r24
 688 00e4 0895      		ret
 690               	.Lscope12:
 692               		.stabd	78,0,0
 695               	.global	rf_addr_decode_set_my_mac
 697               	rf_addr_decode_set_my_mac:
 698               		.stabd	46,0,0
 208:../../src/radio/rf231_soc/source/basic_rf.c **** }
 209:../../src/radio/rf231_soc/source/basic_rf.c **** 
 210:../../src/radio/rf231_soc/source/basic_rf.c **** 
 211:../../src/radio/rf231_soc/source/basic_rf.c **** void rf_addr_decode_set_my_mac(uint16_t my_mac)
 212:../../src/radio/rf231_soc/source/basic_rf.c **** {
 700               	.LM42:
 701               	.LFBB13:
 702               	/* prologue: function */
 703               	/* frame size = 0 */
 704               	/* stack size = 0 */
 705               	.L__stack_usage = 0
 213:../../src/radio/rf231_soc/source/basic_rf.c **** 	/* Set short MAC address */
 214:../../src/radio/rf231_soc/source/basic_rf.c **** 	SHORT_ADDR_0 = (my_mac & 0xFF); 
 707               	.LM43:
 708 00e6 8093 6001 		sts 352,r24
 215:../../src/radio/rf231_soc/source/basic_rf.c **** 	SHORT_ADDR_1 = (my_mac >> 8);
 710               	.LM44:
 711 00ea 9093 6101 		sts 353,r25
 216:../../src/radio/rf231_soc/source/basic_rf.c **** 	rfSettings.myAddr = my_mac;
 713               	.LM45:
 714 00ee 9093 0000 		sts rfSettings+6+1,r25
 715 00f2 8093 0000 		sts rfSettings+6,r24
 716 00f6 0895      		ret
 718               	.Lscope13:
 720               		.stabd	78,0,0
 724               	.global	rf_set_rx
 726               	rf_set_rx:
 727               		.stabd	46,0,0
 217:../../src/radio/rf231_soc/source/basic_rf.c **** }
 218:../../src/radio/rf231_soc/source/basic_rf.c **** 
 219:../../src/radio/rf231_soc/source/basic_rf.c **** 
 220:../../src/radio/rf231_soc/source/basic_rf.c **** void rf_set_rx(RF_RX_INFO *pRRI, uint8_t channel )
 221:../../src/radio/rf231_soc/source/basic_rf.c **** {
 729               	.LM46:
 730               	.LFBB14:
 731               	/* prologue: function */
 732               	/* frame size = 0 */
 733               	/* stack size = 0 */
 734               	.L__stack_usage = 0
 222:../../src/radio/rf231_soc/source/basic_rf.c **** 	rfSettings.pRxInfo = pRRI;
 736               	.LM47:
 737 00f8 9093 0000 		sts rfSettings+1,r25
 738 00fc 8093 0000 		sts rfSettings,r24
 223:../../src/radio/rf231_soc/source/basic_rf.c **** 	PHY_CC_CCA &= ~(0x1F);
 740               	.LM48:
 741 0100 E8E4      		ldi r30,lo8(72)
 742 0102 F1E0      		ldi r31,lo8(1)
 743 0104 8081      		ld r24,Z
 744 0106 807E      		andi r24,lo8(-32)
 745 0108 8083      		st Z,r24
 224:../../src/radio/rf231_soc/source/basic_rf.c **** 	PHY_CC_CCA |= (channel << CHANNEL0);
 747               	.LM49:
 748 010a 8081      		ld r24,Z
 749 010c 682B      		or r22,r24
 750 010e 6083      		st Z,r22
 751 0110 0895      		ret
 753               	.Lscope14:
 755               		.stabd	78,0,0
 758               	.global	rx_start_callback
 760               	rx_start_callback:
 761               		.stabd	46,0,0
 225:../../src/radio/rf231_soc/source/basic_rf.c **** }
 226:../../src/radio/rf231_soc/source/basic_rf.c **** 
 227:../../src/radio/rf231_soc/source/basic_rf.c **** void rx_start_callback(void (*func)(void)){
 763               	.LM50:
 764               	.LFBB15:
 765               	/* prologue: function */
 766               	/* frame size = 0 */
 767               	/* stack size = 0 */
 768               	.L__stack_usage = 0
 228:../../src/radio/rf231_soc/source/basic_rf.c **** 	rx_start_func = func;
 770               	.LM51:
 771 0112 9093 0000 		sts rx_start_func+1,r25
 772 0116 8093 0000 		sts rx_start_func,r24
 773 011a 0895      		ret
 775               	.Lscope15:
 777               		.stabd	78,0,0
 780               	.global	rx_end_callback
 782               	rx_end_callback:
 783               		.stabd	46,0,0
 229:../../src/radio/rf231_soc/source/basic_rf.c **** }
 230:../../src/radio/rf231_soc/source/basic_rf.c **** 
 231:../../src/radio/rf231_soc/source/basic_rf.c **** void rx_end_callback(void (*func)(void)){
 785               	.LM52:
 786               	.LFBB16:
 787               	/* prologue: function */
 788               	/* frame size = 0 */
 789               	/* stack size = 0 */
 790               	.L__stack_usage = 0
 232:../../src/radio/rf231_soc/source/basic_rf.c **** 	rx_end_func = func;
 792               	.LM53:
 793 011c 9093 0000 		sts rx_end_func+1,r25
 794 0120 8093 0000 		sts rx_end_func,r24
 795 0124 0895      		ret
 797               	.Lscope16:
 799               		.stabd	78,0,0
 805               	.global	rf_init
 807               	rf_init:
 808               		.stabd	46,0,0
 233:../../src/radio/rf231_soc/source/basic_rf.c **** }
 234:../../src/radio/rf231_soc/source/basic_rf.c **** 
 235:../../src/radio/rf231_soc/source/basic_rf.c **** 
 236:../../src/radio/rf231_soc/source/basic_rf.c **** void rf_init(RF_RX_INFO *pRRI, uint8_t channel, uint16_t panId, uint16_t myAddr)
 237:../../src/radio/rf231_soc/source/basic_rf.c **** { 
 810               	.LM54:
 811               	.LFBB17:
 812 0126 0F93      		push r16
 813 0128 1F93      		push r17
 814 012a CF93      		push r28
 815 012c DF93      		push r29
 816               	/* prologue: function */
 817               	/* frame size = 0 */
 818               	/* stack size = 4 */
 819               	.L__stack_usage = 4
 820 012e FC01      		movw r30,r24
 821 0130 D901      		movw r26,r18
 238:../../src/radio/rf231_soc/source/basic_rf.c **** /*
 239:../../src/radio/rf231_soc/source/basic_rf.c **** 	 uint8_t n;
 240:../../src/radio/rf231_soc/source/basic_rf.c ****    int8_t v;
 241:../../src/radio/rf231_soc/source/basic_rf.c **** 
 242:../../src/radio/rf231_soc/source/basic_rf.c **** #ifdef RADIO_PRIORITY_CEILING
 243:../../src/radio/rf231_soc/source/basic_rf.c ****     radio_sem = nrk_sem_create(1,RADIO_PRIORITY_CEILING);
 244:../../src/radio/rf231_soc/source/basic_rf.c ****     if (radio_sem == NULL)
 245:../../src/radio/rf231_soc/source/basic_rf.c ****       nrk_kernel_error_add (NRK_SEMAPHORE_CREATE_ERROR, nrk_get_pid ());
 246:../../src/radio/rf231_soc/source/basic_rf.c **** 
 247:../../src/radio/rf231_soc/source/basic_rf.c ****   v = nrk_sem_pend (radio_sem);
 248:../../src/radio/rf231_soc/source/basic_rf.c ****   if (v == NRK_ERROR) {
 249:../../src/radio/rf231_soc/source/basic_rf.c ****     nrk_kprintf (PSTR ("CC2420 ERROR:  Access to semaphore failed\r\n"));
 250:../../src/radio/rf231_soc/source/basic_rf.c ****   }
 251:../../src/radio/rf231_soc/source/basic_rf.c **** #endif
 252:../../src/radio/rf231_soc/source/basic_rf.c **** 	
 253:../../src/radio/rf231_soc/source/basic_rf.c **** 
 254:../../src/radio/rf231_soc/source/basic_rf.c **** #ifdef RADIO_PRIORITY_CEILING
 255:../../src/radio/rf231_soc/source/basic_rf.c ****   v = nrk_sem_post (radio_sem);
 256:../../src/radio/rf231_soc/source/basic_rf.c ****   if (v == NRK_ERROR) {
 257:../../src/radio/rf231_soc/source/basic_rf.c ****     nrk_kprintf (PSTR ("CC2420 ERROR:  Release of semaphore failed\r\n"));
 258:../../src/radio/rf231_soc/source/basic_rf.c ****     _nrk_errno_set (2);
 259:../../src/radio/rf231_soc/source/basic_rf.c ****   }
 260:../../src/radio/rf231_soc/source/basic_rf.c **** #endif
 261:../../src/radio/rf231_soc/source/basic_rf.c **** 
 262:../../src/radio/rf231_soc/source/basic_rf.c **** */
 263:../../src/radio/rf231_soc/source/basic_rf.c **** 
 264:../../src/radio/rf231_soc/source/basic_rf.c **** 
 265:../../src/radio/rf231_soc/source/basic_rf.c **** 	/* Turn on auto crc calculation */
 266:../../src/radio/rf231_soc/source/basic_rf.c **** 	TRX_CTRL_1 = (1 << TX_AUTO_CRC_ON);
 823               	.LM55:
 824 0132 80E2      		ldi r24,lo8(32)
 825 0134 8093 4401 		sts 324,r24
 267:../../src/radio/rf231_soc/source/basic_rf.c **** 	/* Set PA buffer lead time to 6 us and TX power to 3.0 dBm (maximum) */
 268:../../src/radio/rf231_soc/source/basic_rf.c **** 	PHY_TX_PWR = (1 << PA_BUF_LT1) | (1 << PA_BUF_LT0) | (0 << TX_PWR0);
 827               	.LM56:
 828 0138 80EC      		ldi r24,lo8(-64)
 829 013a 8093 4501 		sts 325,r24
 269:../../src/radio/rf231_soc/source/basic_rf.c **** 	/* CCA Mode and Channel selection */
 270:../../src/radio/rf231_soc/source/basic_rf.c **** 	PHY_CC_CCA = (0 << CCA_MODE1) | (1 << CCA_MODE0) | (channel << CHANNEL0);
 831               	.LM57:
 832 013e 6062      		ori r22,lo8(32)
 833 0140 6093 4801 		sts 328,r22
 271:../../src/radio/rf231_soc/source/basic_rf.c **** 	/* Set CCA energy threshold */
 272:../../src/radio/rf231_soc/source/basic_rf.c **** 	CCA_THRES = 0xC5;
 835               	.LM58:
 836 0144 85EC      		ldi r24,lo8(-59)
 837 0146 8093 4901 		sts 329,r24
 273:../../src/radio/rf231_soc/source/basic_rf.c **** 	/* Start of frame delimiter */
 274:../../src/radio/rf231_soc/source/basic_rf.c **** 	SFD_VALUE = 0xA7;
 839               	.LM59:
 840 014a 87EA      		ldi r24,lo8(-89)
 841 014c 8093 4B01 		sts 331,r24
 275:../../src/radio/rf231_soc/source/basic_rf.c **** 	/* Dynamic buffer protection on and data rate is 250 kb/s */
 276:../../src/radio/rf231_soc/source/basic_rf.c **** 	TRX_CTRL_2 = (1 << RX_SAFE_MODE) | (0 << OQPSK_DATA_RATE1) | (0 << OQPSK_DATA_RATE0);
 843               	.LM60:
 844 0150 80E8      		ldi r24,lo8(-128)
 845 0152 8093 4C01 		sts 332,r24
 277:../../src/radio/rf231_soc/source/basic_rf.c **** 	
 278:../../src/radio/rf231_soc/source/basic_rf.c **** 	/* Set short MAC address */
 279:../../src/radio/rf231_soc/source/basic_rf.c **** 	SHORT_ADDR_0 = (myAddr & 0xFF); SHORT_ADDR_1 = (myAddr >> 8);
 847               	.LM61:
 848 0156 2093 6001 		sts 352,r18
 849 015a B093 6101 		sts 353,r27
 280:../../src/radio/rf231_soc/source/basic_rf.c **** 	/* Set PAN ID */
 281:../../src/radio/rf231_soc/source/basic_rf.c **** 	PAN_ID_0 = (panId & 0xFF); PAN_ID_1 = (panId >> 8);
 851               	.LM62:
 852 015e 4093 6201 		sts 354,r20
 853 0162 5093 6301 		sts 355,r21
 282:../../src/radio/rf231_soc/source/basic_rf.c **** 	
 283:../../src/radio/rf231_soc/source/basic_rf.c **** 	/* 2-bit random value generated by radio hardware */
 284:../../src/radio/rf231_soc/source/basic_rf.c **** 	#define RADIO_RAND ((PHY_RSSI >> RND_VALUE0) & 0x3)
 285:../../src/radio/rf231_soc/source/basic_rf.c **** 	/* Set random csma seed */
 286:../../src/radio/rf231_soc/source/basic_rf.c **** 	CSMA_SEED_0 = (RADIO_RAND << 6) | (RADIO_RAND << 4) 
 855               	.LM63:
 856 0166 C6E4      		ldi r28,lo8(70)
 857 0168 D1E0      		ldi r29,lo8(1)
 858 016a 0881      		ld r16,Y
 859 016c 8881      		ld r24,Y
 287:../../src/radio/rf231_soc/source/basic_rf.c **** 			| (RADIO_RAND << 2) | (RADIO_RAND << 0);
 861               	.LM64:
 862 016e 9881      		ld r25,Y
 863 0170 2881      		ld r18,Y
 286:../../src/radio/rf231_soc/source/basic_rf.c **** 			| (RADIO_RAND << 2) | (RADIO_RAND << 0);
 865               	.LM65:
 866 0172 302F      		mov r19,r16
 867 0174 3295      		swap r19
 868 0176 3695      		lsr r19
 869 0178 3770      		andi r19,lo8(7)
 870 017a 60E4      		ldi r22,lo8(64)
 871 017c 369F      		mul r19,r22
 872 017e 8001      		movw r16,r0
 873 0180 1124      		clr __zero_reg__
 874 0182 2295      		swap r18
 875 0184 2695      		lsr r18
 876 0186 2370      		andi r18,lo8(3)
 877 0188 622F      		mov r22,r18
 878 018a 602B      		or r22,r16
 879 018c 8295      		swap r24
 880 018e 8695      		lsr r24
 881 0190 8370      		andi r24,lo8(3)
 882 0192 70E1      		ldi r23,lo8(16)
 883 0194 879F      		mul r24,r23
 884 0196 9001      		movw r18,r0
 885 0198 1124      		clr __zero_reg__
 886 019a 262B      		or r18,r22
 888               	.LM66:
 889 019c 9295      		swap r25
 890 019e 9695      		lsr r25
 891 01a0 9370      		andi r25,lo8(3)
 892 01a2 84E0      		ldi r24,lo8(4)
 893 01a4 989F      		mul r25,r24
 894 01a6 B001      		movw r22,r0
 895 01a8 1124      		clr __zero_reg__
 286:../../src/radio/rf231_soc/source/basic_rf.c **** 			| (RADIO_RAND << 2) | (RADIO_RAND << 0);
 897               	.LM67:
 898 01aa 622B      		or r22,r18
 899 01ac 6093 6D01 		sts 365,r22
 288:../../src/radio/rf231_soc/source/basic_rf.c **** 	/* Will ACK received frames with version numbers of 0 or 1 */
 289:../../src/radio/rf231_soc/source/basic_rf.c **** 	CSMA_SEED_1 = (0 << AACK_FVN_MODE1) | (1 << AACK_FVN_MODE0) 
 290:../../src/radio/rf231_soc/source/basic_rf.c **** 			| (RADIO_RAND << CSMA_SEED_11) | (RADIO_RAND << CSMA_SEED_10);
 901               	.LM68:
 902 01b0 8881      		ld r24,Y
 903 01b2 9881      		ld r25,Y
 289:../../src/radio/rf231_soc/source/basic_rf.c **** 			| (RADIO_RAND << CSMA_SEED_11) | (RADIO_RAND << CSMA_SEED_10);
 905               	.LM69:
 906 01b4 9295      		swap r25
 907 01b6 9695      		lsr r25
 908 01b8 9370      		andi r25,lo8(3)
 909 01ba 392F      		mov r19,r25
 910 01bc 3064      		ori r19,lo8(64)
 912               	.LM70:
 913 01be 982F      		mov r25,r24
 914 01c0 9295      		swap r25
 915 01c2 9670      		andi r25,lo8(6)
 289:../../src/radio/rf231_soc/source/basic_rf.c **** 			| (RADIO_RAND << CSMA_SEED_11) | (RADIO_RAND << CSMA_SEED_10);
 917               	.LM71:
 918 01c4 932B      		or r25,r19
 919 01c6 9093 6E01 		sts 366,r25
 291:../../src/radio/rf231_soc/source/basic_rf.c **** 
 292:../../src/radio/rf231_soc/source/basic_rf.c **** 	/* don't re-transmit frames or perform cca multiple times, slotted op is off */
 293:../../src/radio/rf231_soc/source/basic_rf.c **** 	XAH_CTRL_0 = (0 << MAX_FRAME_RETRIES0) | (0 << MAX_CSMA_RETRIES0)
 921               	.LM72:
 922 01ca 1092 6C01 		sts 364,__zero_reg__
 294:../../src/radio/rf231_soc/source/basic_rf.c **** 			| (0 << SLOTTED_OPERATION);
 295:../../src/radio/rf231_soc/source/basic_rf.c ****    
 296:../../src/radio/rf231_soc/source/basic_rf.c ****    /* Enable all radio interrupts */
 297:../../src/radio/rf231_soc/source/basic_rf.c **** 	IRQ_MASK = (1 << AWAKE_EN) | (1 << TX_END_EN) | (1 << AMI_EN) | (1 << CCA_ED_DONE_EN)
 924               	.LM73:
 925 01ce 8FEF      		ldi r24,lo8(-1)
 926 01d0 8093 4E01 		sts 334,r24
 298:../../src/radio/rf231_soc/source/basic_rf.c **** 			| (1 << RX_END_EN) | (1 << RX_START_EN) | (1 << PLL_UNLOCK_EN) | (1 << PLL_LOCK_EN);
 299:../../src/radio/rf231_soc/source/basic_rf.c **** 
 300:../../src/radio/rf231_soc/source/basic_rf.c **** 	/* Initialize settings struct */
 301:../../src/radio/rf231_soc/source/basic_rf.c **** 	rfSettings.pRxInfo = pRRI;
 928               	.LM74:
 929 01d4 C0E0      		ldi r28,lo8(rfSettings)
 930 01d6 D0E0      		ldi r29,hi8(rfSettings)
 931 01d8 F983      		std Y+1,r31
 932 01da E883      		st Y,r30
 302:../../src/radio/rf231_soc/source/basic_rf.c **** 	rfSettings.txSeqNumber = 0;
 934               	.LM75:
 935 01dc 1A82      		std Y+2,__zero_reg__
 303:../../src/radio/rf231_soc/source/basic_rf.c **** 	rfSettings.ackReceived = 0;
 937               	.LM76:
 938 01de 1B82      		std Y+3,__zero_reg__
 304:../../src/radio/rf231_soc/source/basic_rf.c **** 	rfSettings.panId = panId;
 940               	.LM77:
 941 01e0 5D83      		std Y+5,r21
 942 01e2 4C83      		std Y+4,r20
 305:../../src/radio/rf231_soc/source/basic_rf.c **** 	rfSettings.myAddr = myAddr;
 944               	.LM78:
 945 01e4 BF83      		std Y+7,r27
 946 01e6 AE83      		std Y+6,r26
 306:../../src/radio/rf231_soc/source/basic_rf.c **** 	rfSettings.receiveOn = 0;
 948               	.LM79:
 949 01e8 1886      		std Y+8,__zero_reg__
 307:../../src/radio/rf231_soc/source/basic_rf.c **** 
 308:../../src/radio/rf231_soc/source/basic_rf.c **** 	rf_ready = 1;
 951               	.LM80:
 952 01ea 81E0      		ldi r24,lo8(1)
 953 01ec 8093 0000 		sts rf_ready,r24
 309:../../src/radio/rf231_soc/source/basic_rf.c ****    rx_ready = 0;
 955               	.LM81:
 956 01f0 1092 0000 		sts rx_ready,__zero_reg__
 310:../../src/radio/rf231_soc/source/basic_rf.c ****    tx_done = 0;
 958               	.LM82:
 959 01f4 1092 0000 		sts tx_done,__zero_reg__
 311:../../src/radio/rf231_soc/source/basic_rf.c **** 
 312:../../src/radio/rf231_soc/source/basic_rf.c **** 	use_glossy = 0;
 961               	.LM83:
 962 01f8 1092 0000 		sts use_glossy,__zero_reg__
 963               	/* epilogue start */
 313:../../src/radio/rf231_soc/source/basic_rf.c **** 
 314:../../src/radio/rf231_soc/source/basic_rf.c **** } // rf_init() 
 965               	.LM84:
 966 01fc DF91      		pop r29
 967 01fe CF91      		pop r28
 968 0200 1F91      		pop r17
 969 0202 0F91      		pop r16
 970 0204 0895      		ret
 972               	.Lscope17:
 974               		.stabd	78,0,0
 976               	.global	rf_rx_on
 978               	rf_rx_on:
 979               		.stabd	46,0,0
 315:../../src/radio/rf231_soc/source/basic_rf.c **** 
 316:../../src/radio/rf231_soc/source/basic_rf.c **** 
 317:../../src/radio/rf231_soc/source/basic_rf.c **** //-------------------------------------------------------------------------------------------------
 318:../../src/radio/rf231_soc/source/basic_rf.c **** //  void rf_rx_on(void)
 319:../../src/radio/rf231_soc/source/basic_rf.c **** //
 320:../../src/radio/rf231_soc/source/basic_rf.c **** //  DESCRIPTION:
 321:../../src/radio/rf231_soc/source/basic_rf.c **** //      Enables the CC2420 receiver and the FIFOP interrupt. When a packet is received through this
 322:../../src/radio/rf231_soc/source/basic_rf.c **** //      interrupt, it will call rf_rx_callback(...), which must be defined by the application
 323:../../src/radio/rf231_soc/source/basic_rf.c **** //-------------------------------------------------------------------------------------------------
 324:../../src/radio/rf231_soc/source/basic_rf.c **** void rf_rx_on(void) 
 325:../../src/radio/rf231_soc/source/basic_rf.c **** {
 981               	.LM85:
 982               	.LFBB18:
 983               	/* prologue: function */
 984               	/* frame size = 0 */
 985               	/* stack size = 0 */
 986               	.L__stack_usage = 0
 326:../../src/radio/rf231_soc/source/basic_rf.c **** /*
 327:../../src/radio/rf231_soc/source/basic_rf.c **** #ifdef RADIO_PRIORITY_CEILING
 328:../../src/radio/rf231_soc/source/basic_rf.c **** 	nrk_sem_pend (radio_sem);
 329:../../src/radio/rf231_soc/source/basic_rf.c **** #endif
 330:../../src/radio/rf231_soc/source/basic_rf.c **** 	rfSettings.receiveOn = TRUE;
 331:../../src/radio/rf231_soc/source/basic_rf.c **** 
 332:../../src/radio/rf231_soc/source/basic_rf.c **** #ifdef RADIO_PRIORITY_CEILING
 333:../../src/radio/rf231_soc/source/basic_rf.c **** 	nrk_sem_post(radio_sem);
 334:../../src/radio/rf231_soc/source/basic_rf.c **** #endif
 335:../../src/radio/rf231_soc/source/basic_rf.c **** */
 336:../../src/radio/rf231_soc/source/basic_rf.c **** 
 337:../../src/radio/rf231_soc/source/basic_rf.c **** #ifdef RADIO_CC2591
 338:../../src/radio/rf231_soc/source/basic_rf.c **** 	rf_cc2591_rx_on();
 339:../../src/radio/rf231_soc/source/basic_rf.c **** #endif
 340:../../src/radio/rf231_soc/source/basic_rf.c **** #ifdef GLOSSY_TESTING
 341:../../src/radio/rf231_soc/source/basic_rf.c **** 	clear_packet_flags();
 342:../../src/radio/rf231_soc/source/basic_rf.c **** #endif
 343:../../src/radio/rf231_soc/source/basic_rf.c **** 	rf_cmd(RX_AACK_ON);
 988               	.LM86:
 989 0206 86E1      		ldi r24,lo8(22)
 990 0208 0C94 0000 		jmp rf_cmd
 992               	.Lscope18:
 994               		.stabd	78,0,0
 996               	.global	rf_polling_rx_on
 998               	rf_polling_rx_on:
 999               		.stabd	46,0,0
 344:../../src/radio/rf231_soc/source/basic_rf.c **** }
 345:../../src/radio/rf231_soc/source/basic_rf.c **** 
 346:../../src/radio/rf231_soc/source/basic_rf.c **** void rf_polling_rx_on(void)
 347:../../src/radio/rf231_soc/source/basic_rf.c **** {
 1001               	.LM87:
 1002               	.LFBB19:
 1003               	/* prologue: function */
 1004               	/* frame size = 0 */
 1005               	/* stack size = 0 */
 1006               	.L__stack_usage = 0
 348:../../src/radio/rf231_soc/source/basic_rf.c **** /*#ifdef RADIO_PRIORITY_CEILING
 349:../../src/radio/rf231_soc/source/basic_rf.c **** 	nrk_sem_pend (radio_sem);
 350:../../src/radio/rf231_soc/source/basic_rf.c **** #endif
 351:../../src/radio/rf231_soc/source/basic_rf.c ****   rfSettings.receiveOn = TRUE;
 352:../../src/radio/rf231_soc/source/basic_rf.c **** 
 353:../../src/radio/rf231_soc/source/basic_rf.c **** 
 354:../../src/radio/rf231_soc/source/basic_rf.c **** #ifdef RADIO_PRIORITY_CEILING
 355:../../src/radio/rf231_soc/source/basic_rf.c **** 	nrk_sem_post(radio_sem);
 356:../../src/radio/rf231_soc/source/basic_rf.c **** #endif
 357:../../src/radio/rf231_soc/source/basic_rf.c **** */
 358:../../src/radio/rf231_soc/source/basic_rf.c **** 
 359:../../src/radio/rf231_soc/source/basic_rf.c **** #ifdef RADIO_CC2591
 360:../../src/radio/rf231_soc/source/basic_rf.c **** 	rf_cc2591_rx_on();
 361:../../src/radio/rf231_soc/source/basic_rf.c **** #endif
 362:../../src/radio/rf231_soc/source/basic_rf.c **** 
 363:../../src/radio/rf231_soc/source/basic_rf.c **** 	rf_cmd(RX_AACK_ON);
 1008               	.LM88:
 1009 020c 86E1      		ldi r24,lo8(22)
 1010 020e 0C94 0000 		jmp rf_cmd
 1012               	.Lscope19:
 1014               		.stabd	78,0,0
 1016               	.global	rf_rx_off
 1018               	rf_rx_off:
 1019               		.stabd	46,0,0
 364:../../src/radio/rf231_soc/source/basic_rf.c **** }
 365:../../src/radio/rf231_soc/source/basic_rf.c **** 
 366:../../src/radio/rf231_soc/source/basic_rf.c **** 
 367:../../src/radio/rf231_soc/source/basic_rf.c **** //-------------------------------------------------------------------------------------------------
 368:../../src/radio/rf231_soc/source/basic_rf.c **** //  void rf_rx_off(void)
 369:../../src/radio/rf231_soc/source/basic_rf.c **** //
 370:../../src/radio/rf231_soc/source/basic_rf.c **** //  DESCRIPTION:
 371:../../src/radio/rf231_soc/source/basic_rf.c **** //      Disables the CC2420 receiver and the FIFOP interrupt.
 372:../../src/radio/rf231_soc/source/basic_rf.c **** //-------------------------------------------------------------------------------------------------
 373:../../src/radio/rf231_soc/source/basic_rf.c **** void rf_rx_off(void)
 374:../../src/radio/rf231_soc/source/basic_rf.c **** {
 1021               	.LM89:
 1022               	.LFBB20:
 1023               	/* prologue: function */
 1024               	/* frame size = 0 */
 1025               	/* stack size = 0 */
 1026               	.L__stack_usage = 0
 375:../../src/radio/rf231_soc/source/basic_rf.c **** /*
 376:../../src/radio/rf231_soc/source/basic_rf.c **** #ifdef RADIO_PRIORITY_CEILING
 377:../../src/radio/rf231_soc/source/basic_rf.c ****   nrk_sem_pend (radio_sem);
 378:../../src/radio/rf231_soc/source/basic_rf.c **** #endif
 379:../../src/radio/rf231_soc/source/basic_rf.c **** 	// XXX
 380:../../src/radio/rf231_soc/source/basic_rf.c ****   //SET_VREG_INACTIVE();	
 381:../../src/radio/rf231_soc/source/basic_rf.c **** 	rfSettings.receiveOn = FALSE;
 382:../../src/radio/rf231_soc/source/basic_rf.c **** 
 383:../../src/radio/rf231_soc/source/basic_rf.c **** #ifdef RADIO_PRIORITY_CEILING
 384:../../src/radio/rf231_soc/source/basic_rf.c ****   nrk_sem_post(radio_sem);
 385:../../src/radio/rf231_soc/source/basic_rf.c **** #endif
 386:../../src/radio/rf231_soc/source/basic_rf.c ****   //	DISABLE_FIFOP_INT();
 387:../../src/radio/rf231_soc/source/basic_rf.c **** */
 388:../../src/radio/rf231_soc/source/basic_rf.c ****    rf_cmd(TRX_OFF);
 1028               	.LM90:
 1029 0212 88E0      		ldi r24,lo8(8)
 1030 0214 0E94 0000 		call rf_cmd
 389:../../src/radio/rf231_soc/source/basic_rf.c ****    rx_ready = 0;
 1032               	.LM91:
 1033 0218 1092 0000 		sts rx_ready,__zero_reg__
 1034 021c 0895      		ret
 1036               	.Lscope20:
 1038               		.stabd	78,0,0
 1041               	.global	rf_tx_packet
 1043               	rf_tx_packet:
 1044               		.stabd	46,0,0
 390:../../src/radio/rf231_soc/source/basic_rf.c **** }
 391:../../src/radio/rf231_soc/source/basic_rf.c **** 
 392:../../src/radio/rf231_soc/source/basic_rf.c **** 
 393:../../src/radio/rf231_soc/source/basic_rf.c **** 
 394:../../src/radio/rf231_soc/source/basic_rf.c **** //-------------------------------------------------------------------------------------------------
 395:../../src/radio/rf231_soc/source/basic_rf.c **** //  BYTE rf_tx_packet(RF_TX_INFO *pRTI)
 396:../../src/radio/rf231_soc/source/basic_rf.c **** //
 397:../../src/radio/rf231_soc/source/basic_rf.c **** //  DESCRIPTION:
 398:../../src/radio/rf231_soc/source/basic_rf.c **** //		Transmits a packet using the IEEE 802.15.4 MAC data packet format with short addresses. CCA is
 399:../../src/radio/rf231_soc/source/basic_rf.c **** //		measured only once before packet transmission (not compliant with 802.15.4 CSMA-CA).
 400:../../src/radio/rf231_soc/source/basic_rf.c **** //		The function returns:
 401:../../src/radio/rf231_soc/source/basic_rf.c **** //			- When pRTI->ackRequest is FALSE: After the transmission has begun (SFD gone high)
 402:../../src/radio/rf231_soc/source/basic_rf.c **** //			- When pRTI->ackRequest is TRUE: After the acknowledgment has been received/declared missing.
 403:../../src/radio/rf231_soc/source/basic_rf.c **** //		The acknowledgment is received through the FIFOP interrupt.
 404:../../src/radio/rf231_soc/source/basic_rf.c **** //
 405:../../src/radio/rf231_soc/source/basic_rf.c **** //  ARGUMENTS:
 406:../../src/radio/rf231_soc/source/basic_rf.c **** //      RF_TX_INFO *pRTI
 407:../../src/radio/rf231_soc/source/basic_rf.c **** //          The transmission structure, which contains all relevant info about the packet.
 408:../../src/radio/rf231_soc/source/basic_rf.c **** //
 409:../../src/radio/rf231_soc/source/basic_rf.c **** //  RETURN VALUE:
 410:../../src/radio/rf231_soc/source/basic_rf.c **** //		uint8_t
 411:../../src/radio/rf231_soc/source/basic_rf.c **** //			Successful transmission (acknowledgment received)
 412:../../src/radio/rf231_soc/source/basic_rf.c **** //-------------------------------------------------------------------------------------------------
 413:../../src/radio/rf231_soc/source/basic_rf.c **** 
 414:../../src/radio/rf231_soc/source/basic_rf.c **** 
 415:../../src/radio/rf231_soc/source/basic_rf.c **** uint8_t rf_tx_packet(RF_TX_INFO *pRTI)
 416:../../src/radio/rf231_soc/source/basic_rf.c **** {
 1046               	.LM92:
 1047               	.LFBB21:
 1048 021e 0F93      		push r16
 1049 0220 1F93      		push r17
 1050 0222 CF93      		push r28
 1051 0224 DF93      		push r29
 1052               	/* prologue: function */
 1053               	/* frame size = 0 */
 1054               	/* stack size = 4 */
 1055               	.L__stack_usage = 4
 1056 0226 FC01      		movw r30,r24
 417:../../src/radio/rf231_soc/source/basic_rf.c **** 	/*
 418:../../src/radio/rf231_soc/source/basic_rf.c **** 	#ifdef RADIO_PRIORITY_CEILING
 419:../../src/radio/rf231_soc/source/basic_rf.c **** 	nrk_sem_pend(radio_sem);
 420:../../src/radio/rf231_soc/source/basic_rf.c **** 	#endif
 421:../../src/radio/rf231_soc/source/basic_rf.c **** 
 422:../../src/radio/rf231_soc/source/basic_rf.c **** 	#ifdef RADIO_PRIORITY_CEILING
 423:../../src/radio/rf231_soc/source/basic_rf.c **** 	nrk_sem_post(radio_sem);
 424:../../src/radio/rf231_soc/source/basic_rf.c **** 	#endif
 425:../../src/radio/rf231_soc/source/basic_rf.c **** 	//return success;
 426:../../src/radio/rf231_soc/source/basic_rf.c **** 	*/
 427:../../src/radio/rf231_soc/source/basic_rf.c **** 
 428:../../src/radio/rf231_soc/source/basic_rf.c **** 	uint8_t trx_status, trx_error, *data_start, *frame_start = &TRXFBST;
 429:../../src/radio/rf231_soc/source/basic_rf.c **** 	uint16_t i;
 430:../../src/radio/rf231_soc/source/basic_rf.c **** 
 431:../../src/radio/rf231_soc/source/basic_rf.c **** 	if(!rf_ready) 
 1058               	.LM93:
 1059 0228 8091 0000 		lds r24,rf_ready
 1060 022c 8111      		cpse r24,__zero_reg__
 1061 022e 00C0      		rjmp .L57
 1062               	.L66:
 432:../../src/radio/rf231_soc/source/basic_rf.c **** 		return NRK_ERROR;
 1064               	.LM94:
 1065 0230 8FEF      		ldi r24,lo8(-1)
 1066 0232 00C0      		rjmp .L58
 1067               	.L57:
 433:../../src/radio/rf231_soc/source/basic_rf.c **** 	
 434:../../src/radio/rf231_soc/source/basic_rf.c **** 	ieee_mac_frame_header_t *machead = frame_start + 1;
 435:../../src/radio/rf231_soc/source/basic_rf.c **** 	ieee_mac_fcf_t fcf;
 436:../../src/radio/rf231_soc/source/basic_rf.c **** 
 437:../../src/radio/rf231_soc/source/basic_rf.c **** 	/* TODO: Setting FCF bits is probably slow. Optimize later. */
 438:../../src/radio/rf231_soc/source/basic_rf.c **** 	fcf.frame_type = 1;
 439:../../src/radio/rf231_soc/source/basic_rf.c **** 	fcf.sec_en = 0;
 440:../../src/radio/rf231_soc/source/basic_rf.c **** 	fcf.frame_pending = 0;
 441:../../src/radio/rf231_soc/source/basic_rf.c **** 	fcf.ack_request = pRTI->ackRequest;
 1069               	.LM95:
 1070 0234 2681      		ldd r18,Z+6
 442:../../src/radio/rf231_soc/source/basic_rf.c **** 	fcf.intra_pan = 1;
 443:../../src/radio/rf231_soc/source/basic_rf.c **** 	fcf.res = 0;
 444:../../src/radio/rf231_soc/source/basic_rf.c **** 	fcf.dest_addr_mode = 2;
 445:../../src/radio/rf231_soc/source/basic_rf.c **** 	fcf.frame_version = 0;
 446:../../src/radio/rf231_soc/source/basic_rf.c **** 	fcf.src_addr_mode = 2;
 447:../../src/radio/rf231_soc/source/basic_rf.c **** 	
 448:../../src/radio/rf231_soc/source/basic_rf.c **** 	/* Build the rest of the MAC header */
 449:../../src/radio/rf231_soc/source/basic_rf.c **** 	rfSettings.txSeqNumber++;
 1072               	.LM96:
 1073 0236 8091 0000 		lds r24,rfSettings+2
 1074 023a 8F5F      		subi r24,lo8(-(1))
 1075 023c 8093 0000 		sts rfSettings+2,r24
 450:../../src/radio/rf231_soc/source/basic_rf.c **** 	machead->fcf = fcf;
 1077               	.LM97:
 1078 0240 9091 8101 		lds r25,385
 1079 0244 907E      		andi r25,lo8(-32)
 1080 0246 9160      		ori r25,lo8(1)
 1081 0248 20FB      		bst r18,0
 1082 024a 95F9      		bld r25,5
 1083 024c 9F73      		andi r25,lo8(63)
 1084 024e 9064      		ori r25,lo8(64)
 1085 0250 9093 8101 		sts 385,r25
 1086 0254 88E8      		ldi r24,lo8(-120)
 1087 0256 8093 8201 		sts 386,r24
 451:../../src/radio/rf231_soc/source/basic_rf.c **** 	if (use_glossy) {
 1089               	.LM98:
 1090 025a 8091 0000 		lds r24,use_glossy
 1091 025e 8823      		tst r24
 1092 0260 01F0      		breq .L59
 452:../../src/radio/rf231_soc/source/basic_rf.c **** 		machead->seq_num = 0xFF;
 1094               	.LM99:
 1095 0262 8FEF      		ldi r24,lo8(-1)
 1096 0264 8093 8301 		sts 387,r24
 453:../../src/radio/rf231_soc/source/basic_rf.c **** 		machead->src_addr = 0xAAAA;
 1098               	.LM100:
 1099 0268 8AEA      		ldi r24,lo8(-86)
 1100 026a 9AEA      		ldi r25,lo8(-86)
 1101 026c 9093 8901 		sts 392+1,r25
 1102 0270 8093 8801 		sts 392,r24
 454:../../src/radio/rf231_soc/source/basic_rf.c **** 		machead->dest_addr = 0xFFFF;
 1104               	.LM101:
 1105 0274 8FEF      		ldi r24,lo8(-1)
 1106 0276 9FEF      		ldi r25,lo8(-1)
 1107 0278 00C0      		rjmp .L96
 1108               	.L59:
 455:../../src/radio/rf231_soc/source/basic_rf.c **** 		machead->dest_pan_id = (PAN_ID_1 << 8) | PAN_ID_0;
 456:../../src/radio/rf231_soc/source/basic_rf.c **** 	} else {
 457:../../src/radio/rf231_soc/source/basic_rf.c **** 		machead->seq_num = rfSettings.txSeqNumber;
 1110               	.LM102:
 1111 027a 8091 0000 		lds r24,rfSettings+2
 1112 027e 8093 8301 		sts 387,r24
 458:../../src/radio/rf231_soc/source/basic_rf.c **** 		machead->src_addr = (SHORT_ADDR_1 << 8) | SHORT_ADDR_0;
 1114               	.LM103:
 1115 0282 2091 6101 		lds r18,353
 1116 0286 8091 6001 		lds r24,352
 1117 028a 90E0      		ldi r25,0
 1118 028c 922B      		or r25,r18
 1119 028e 9093 8901 		sts 392+1,r25
 1120 0292 8093 8801 		sts 392,r24
 459:../../src/radio/rf231_soc/source/basic_rf.c **** 		machead->dest_addr = pRTI->destAddr;
 1122               	.LM104:
 1123 0296 8081      		ld r24,Z
 1124 0298 9181      		ldd r25,Z+1
 1125               	.L96:
 1126 029a 9093 8701 		sts 390+1,r25
 1127 029e 8093 8601 		sts 390,r24
 460:../../src/radio/rf231_soc/source/basic_rf.c **** 		machead->dest_pan_id = (PAN_ID_1 << 8) | PAN_ID_0;
 1129               	.LM105:
 1130 02a2 2091 6301 		lds r18,355
 1131 02a6 8091 6201 		lds r24,354
 1132 02aa 90E0      		ldi r25,0
 1133 02ac 922B      		or r25,r18
 1134 02ae 9093 8501 		sts 388+1,r25
 1135 02b2 8093 8401 		sts 388,r24
 1136 02b6 8F01      		movw r16,r30
 461:../../src/radio/rf231_soc/source/basic_rf.c **** 	}
 462:../../src/radio/rf231_soc/source/basic_rf.c **** 	//machead->src_pan_id = (PAN_ID_1 << 8) | PAN_ID_0;
 463:../../src/radio/rf231_soc/source/basic_rf.c **** 	
 464:../../src/radio/rf231_soc/source/basic_rf.c **** 	/* Copy data payload into packet */
 465:../../src/radio/rf231_soc/source/basic_rf.c **** 	data_start = frame_start + sizeof(ieee_mac_frame_header_t) + 1;
 466:../../src/radio/rf231_soc/source/basic_rf.c **** 	memcpy(data_start, pRTI->pPayload, pRTI->length);
 1138               	.LM106:
 1139 02b8 4281      		ldd r20,Z+2
 1140 02ba 5527      		clr r21
 1141 02bc 47FD      		sbrc r20,7
 1142 02be 5095      		com r21
 1143 02c0 6381      		ldd r22,Z+3
 1144 02c2 7481      		ldd r23,Z+4
 1145 02c4 8AE8      		ldi r24,lo8(-118)
 1146 02c6 91E0      		ldi r25,lo8(1)
 1147 02c8 0E94 0000 		call memcpy
 467:../../src/radio/rf231_soc/source/basic_rf.c **** 	/* Set the size of the packet */
 468:../../src/radio/rf231_soc/source/basic_rf.c **** 	*frame_start = sizeof(ieee_mac_frame_header_t) + pRTI->length + 2;
 1149               	.LM107:
 1150 02cc F801      		movw r30,r16
 1151 02ce 8281      		ldd r24,Z+2
 1152 02d0 855F      		subi r24,lo8(-(11))
 1153 02d2 8093 8001 		sts 384,r24
 1154               	.L61:
 469:../../src/radio/rf231_soc/source/basic_rf.c **** 	
 470:../../src/radio/rf231_soc/source/basic_rf.c **** 	vprintf("packet length: %d bytes\r\n", *frame_start);
 471:../../src/radio/rf231_soc/source/basic_rf.c **** 
 472:../../src/radio/rf231_soc/source/basic_rf.c **** 	/* Wait for radio to be in a ready state */
 473:../../src/radio/rf231_soc/source/basic_rf.c **** 	do{
 474:../../src/radio/rf231_soc/source/basic_rf.c **** 		trx_status = (TRX_STATUS & 0x1F);
 1156               	.LM108:
 1157 02d6 8091 4101 		lds r24,321
 1158 02da D82F      		mov r29,r24
 1159 02dc DF71      		andi r29,lo8(31)
 475:../../src/radio/rf231_soc/source/basic_rf.c **** 	}while((trx_status == BUSY_TX) || (trx_status == BUSY_RX)
 1161               	.LM109:
 1162 02de 9FEF      		ldi r25,lo8(-1)
 1163 02e0 9D0F      		add r25,r29
 476:../../src/radio/rf231_soc/source/basic_rf.c **** 			|| (trx_status == BUSY_RX_AACK) || (trx_status == BUSY_TX_ARET)
 477:../../src/radio/rf231_soc/source/basic_rf.c **** 			|| (trx_status == STATE_TRANSITION_IN_PROGRESS));
 1165               	.LM110:
 1166 02e2 9230      		cpi r25,lo8(2)
 1167 02e4 00F0      		brlo .L61
 476:../../src/radio/rf231_soc/source/basic_rf.c **** 			|| (trx_status == BUSY_RX_AACK) || (trx_status == BUSY_TX_ARET)
 1169               	.LM111:
 1170 02e6 D131      		cpi r29,lo8(17)
 1171 02e8 01F0      		breq .L61
 1172 02ea D231      		cpi r29,lo8(18)
 1173 02ec 01F0      		breq .L61
 1175               	.LM112:
 1176 02ee DF31      		cpi r29,lo8(31)
 1177 02f0 01F0      		breq .L61
 478:../../src/radio/rf231_soc/source/basic_rf.c **** 	
 479:../../src/radio/rf231_soc/source/basic_rf.c **** 	/* Return error if radio not in a tx-ready state */
 480:../../src/radio/rf231_soc/source/basic_rf.c **** 	if((trx_status != TRX_OFF) && (trx_status != RX_ON) 
 1179               	.LM113:
 1180 02f2 98EF      		ldi r25,lo8(-8)
 1181 02f4 9D0F      		add r25,r29
 1182 02f6 9230      		cpi r25,lo8(2)
 1183 02f8 00F0      		brlo .L65
 1185               	.LM114:
 1186 02fa 8F70      		andi r24,lo8(15)
 1187 02fc 8630      		cpi r24,lo8(6)
 1188 02fe 01F0      		breq .+2
 1189 0300 00C0      		rjmp .L66
 1190               	.L65:
 481:../../src/radio/rf231_soc/source/basic_rf.c **** 			&& (trx_status != RX_AACK_ON) && (trx_status != PLL_ON)){
 482:../../src/radio/rf231_soc/source/basic_rf.c **** 		return NRK_ERROR;
 483:../../src/radio/rf231_soc/source/basic_rf.c **** 	}
 484:../../src/radio/rf231_soc/source/basic_rf.c **** 
 485:../../src/radio/rf231_soc/source/basic_rf.c **** 	rf_cmd(RX_AACK_ON);
 1192               	.LM115:
 1193 0302 86E1      		ldi r24,lo8(22)
 1194 0304 0E94 0000 		call rf_cmd
 486:../../src/radio/rf231_soc/source/basic_rf.c **** 
 487:../../src/radio/rf231_soc/source/basic_rf.c **** 	/* Perform CCA if requested */
 488:../../src/radio/rf231_soc/source/basic_rf.c **** 	if(pRTI->cca){
 1196               	.LM116:
 1197 0308 F801      		movw r30,r16
 1198 030a 8581      		ldd r24,Z+5
 1199 030c 8111      		cpse r24,__zero_reg__
 1200 030e 00C0      		rjmp .L67
 1201               	.L71:
 489:../../src/radio/rf231_soc/source/basic_rf.c **** 		PHY_CC_CCA |= (1 << CCA_REQUEST);
 490:../../src/radio/rf231_soc/source/basic_rf.c **** 		while(!(TRX_STATUS & (1 << CCA_DONE)))
 491:../../src/radio/rf231_soc/source/basic_rf.c **** 			continue;
 492:../../src/radio/rf231_soc/source/basic_rf.c **** 		if(!(TRX_STATUS & (1 << CCA_STATUS)))
 493:../../src/radio/rf231_soc/source/basic_rf.c **** 			return NRK_ERROR;
 494:../../src/radio/rf231_soc/source/basic_rf.c **** 	}
 495:../../src/radio/rf231_soc/source/basic_rf.c **** 
 496:../../src/radio/rf231_soc/source/basic_rf.c **** 	rf_cmd(PLL_ON);
 1203               	.LM117:
 1204 0310 89E0      		ldi r24,lo8(9)
 1205 0312 0E94 0000 		call rf_cmd
 497:../../src/radio/rf231_soc/source/basic_rf.c **** 	if(pRTI->ackRequest)
 1207               	.LM118:
 1208 0316 F801      		movw r30,r16
 1209 0318 8681      		ldd r24,Z+6
 1210 031a 8823      		tst r24
 1211 031c 01F0      		breq .L69
 498:../../src/radio/rf231_soc/source/basic_rf.c **** 		rf_cmd(TX_ARET_ON);
 1213               	.LM119:
 1214 031e 89E1      		ldi r24,lo8(25)
 1215 0320 0E94 0000 		call rf_cmd
 1216 0324 00C0      		rjmp .L69
 1217               	.L67:
 489:../../src/radio/rf231_soc/source/basic_rf.c **** 		PHY_CC_CCA |= (1 << CCA_REQUEST);
 1219               	.LM120:
 1220 0326 8091 4801 		lds r24,328
 1221 032a 8068      		ori r24,lo8(-128)
 1222 032c 8093 4801 		sts 328,r24
 1223               	.L70:
 490:../../src/radio/rf231_soc/source/basic_rf.c **** 			continue;
 1225               	.LM121:
 1226 0330 8091 4101 		lds r24,321
 1227 0334 87FF      		sbrs r24,7
 1228 0336 00C0      		rjmp .L70
 492:../../src/radio/rf231_soc/source/basic_rf.c **** 			return NRK_ERROR;
 1230               	.LM122:
 1231 0338 8091 4101 		lds r24,321
 1232 033c 86FF      		sbrs r24,6
 1233 033e 00C0      		rjmp .L66
 1234 0340 00C0      		rjmp .L71
 1235               	.L69:
 499:../../src/radio/rf231_soc/source/basic_rf.c **** 	
 500:../../src/radio/rf231_soc/source/basic_rf.c **** #ifdef RADIO_CC2591
 501:../../src/radio/rf231_soc/source/basic_rf.c **** 		rf_cc2591_tx_on();
 502:../../src/radio/rf231_soc/source/basic_rf.c **** #endif
 503:../../src/radio/rf231_soc/source/basic_rf.c **** 
 504:../../src/radio/rf231_soc/source/basic_rf.c ****    tx_done = 0;
 1237               	.LM123:
 1238 0342 1092 0000 		sts tx_done,__zero_reg__
 505:../../src/radio/rf231_soc/source/basic_rf.c ****    // Send packet. 0x2 is equivalent to TX_START
 506:../../src/radio/rf231_soc/source/basic_rf.c ****    rf_cmd(0x2);
 1240               	.LM124:
 1241 0346 82E0      		ldi r24,lo8(2)
 1242 0348 0E94 0000 		call rf_cmd
 507:../../src/radio/rf231_soc/source/basic_rf.c ****    for(i=0; (i<65000) && !tx_done; i++){
 1244               	.LM125:
 1245 034c 80E0      		ldi r24,0
 1246 034e 90E0      		ldi r25,0
 1247               	.L72:
 1249               	.LM126:
 1250 0350 2091 0000 		lds r18,tx_done
 1251 0354 2111      		cpse r18,__zero_reg__
 1252 0356 00C0      		rjmp .L73
 1254               	.LM127:
 1255 0358 0196      		adiw r24,1
 1256 035a 883E      		cpi r24,-24
 1257 035c FDEF      		ldi r31,-3
 1258 035e 9F07      		cpc r25,r31
 1259 0360 01F4      		brne .L72
 1260               	.L73:
 508:../../src/radio/rf231_soc/source/basic_rf.c ****       continue;
 509:../../src/radio/rf231_soc/source/basic_rf.c ****    }
 510:../../src/radio/rf231_soc/source/basic_rf.c **** 
 511:../../src/radio/rf231_soc/source/basic_rf.c ****    /* note error if ACK requested and not received */
 512:../../src/radio/rf231_soc/source/basic_rf.c **** 	trx_error = ((pRTI->ackRequest && 
 1262               	.LM128:
 1263 0362 F801      		movw r30,r16
 1264 0364 2681      		ldd r18,Z+6
 1265 0366 2223      		tst r18
 1266 0368 01F0      		breq .L75
 513:../../src/radio/rf231_soc/source/basic_rf.c **** 			(((TRX_STATE >> TRAC_STATUS0) & 0x7) != 0))
 1268               	.LM129:
 1269 036a 2091 4201 		lds r18,322
 1270 036e 2295      		swap r18
 1271 0370 2695      		lsr r18
 1272 0372 2770      		andi r18,lo8(7)
 512:../../src/radio/rf231_soc/source/basic_rf.c **** 			(((TRX_STATE >> TRAC_STATUS0) & 0x7) != 0))
 1274               	.LM130:
 1275 0374 01F4      		brne .L78
 1276               	.L75:
 514:../../src/radio/rf231_soc/source/basic_rf.c **** 			|| (i == 65000)) ? NRK_ERROR : NRK_OK;
 1278               	.LM131:
 1279 0376 883E      		cpi r24,-24
 1280 0378 9D4F      		sbci r25,-3
 1281 037a 01F0      		breq .L78
 512:../../src/radio/rf231_soc/source/basic_rf.c **** 			(((TRX_STATE >> TRAC_STATUS0) & 0x7) != 0))
 1283               	.LM132:
 1284 037c C1E0      		ldi r28,lo8(1)
 1285 037e 00C0      		rjmp .L76
 1286               	.L78:
 1287 0380 CFEF      		ldi r28,lo8(-1)
 1288               	.L76:
 515:../../src/radio/rf231_soc/source/basic_rf.c **** 	rf_cmd(trx_status);
 1290               	.LM133:
 1291 0382 8D2F      		mov r24,r29
 1292 0384 0E94 0000 		call rf_cmd
 516:../../src/radio/rf231_soc/source/basic_rf.c **** 
 517:../../src/radio/rf231_soc/source/basic_rf.c **** #ifdef RADIO_CC2591
 518:../../src/radio/rf231_soc/source/basic_rf.c **** 	if (trx_error == NRK_ERROR) rf_cc2591_rx_on();
 519:../../src/radio/rf231_soc/source/basic_rf.c **** #endif
 520:../../src/radio/rf231_soc/source/basic_rf.c **** 
 521:../../src/radio/rf231_soc/source/basic_rf.c **** 	return trx_error;
 1294               	.LM134:
 1295 0388 8C2F      		mov r24,r28
 1296               	.L58:
 1297               	/* epilogue start */
 522:../../src/radio/rf231_soc/source/basic_rf.c **** }
 1299               	.LM135:
 1300 038a DF91      		pop r29
 1301 038c CF91      		pop r28
 1302 038e 1F91      		pop r17
 1303 0390 0F91      		pop r16
 1304 0392 0895      		ret
 1310               	.Lscope21:
 1312               		.stabd	78,0,0
 1314               	.global	rf_tx_packet_resend
 1316               	rf_tx_packet_resend:
 1317               		.stabd	46,0,0
 523:../../src/radio/rf231_soc/source/basic_rf.c **** 
 524:../../src/radio/rf231_soc/source/basic_rf.c **** 
 525:../../src/radio/rf231_soc/source/basic_rf.c **** /* Resends the packet in the buffer */
 526:../../src/radio/rf231_soc/source/basic_rf.c **** uint8_t rf_tx_packet_resend()
 527:../../src/radio/rf231_soc/source/basic_rf.c **** {
 1319               	.LM136:
 1320               	.LFBB22:
 1321               	/* prologue: function */
 1322               	/* frame size = 0 */
 1323               	/* stack size = 0 */
 1324               	.L__stack_usage = 0
 528:../../src/radio/rf231_soc/source/basic_rf.c ****    uint8_t trx_error;
 529:../../src/radio/rf231_soc/source/basic_rf.c ****    uint16_t i;
 530:../../src/radio/rf231_soc/source/basic_rf.c **** 
 531:../../src/radio/rf231_soc/source/basic_rf.c ****    tx_done = 0;
 1326               	.LM137:
 1327 0394 1092 0000 		sts tx_done,__zero_reg__
 532:../../src/radio/rf231_soc/source/basic_rf.c ****    // Send packet. 0x2 is equivalent to TX_START
 533:../../src/radio/rf231_soc/source/basic_rf.c ****    rf_cmd(0x2);
 1329               	.LM138:
 1330 0398 82E0      		ldi r24,lo8(2)
 1331 039a 0E94 0000 		call rf_cmd
 1332 039e 88EE      		ldi r24,lo8(-24)
 1333 03a0 9DEF      		ldi r25,lo8(-3)
 1334               	.L98:
 534:../../src/radio/rf231_soc/source/basic_rf.c ****    for(i=0; (i<65000) && !tx_done; i++)
 1336               	.LM139:
 1337 03a2 2091 0000 		lds r18,tx_done
 1338 03a6 2111      		cpse r18,__zero_reg__
 1339 03a8 00C0      		rjmp .L102
 1340 03aa 0197      		sbiw r24,1
 1342               	.LM140:
 1343 03ac 01F4      		brne .L98
 535:../../src/radio/rf231_soc/source/basic_rf.c ****       continue;
 536:../../src/radio/rf231_soc/source/basic_rf.c ****    trx_error = (i == 65000) ? NRK_ERROR : NRK_OK;
 1345               	.LM141:
 1346 03ae 8FEF      		ldi r24,lo8(-1)
 537:../../src/radio/rf231_soc/source/basic_rf.c **** 
 538:../../src/radio/rf231_soc/source/basic_rf.c ****    return trx_error;
 539:../../src/radio/rf231_soc/source/basic_rf.c **** }
 1348               	.LM142:
 1349 03b0 0895      		ret
 1350               	.L102:
 536:../../src/radio/rf231_soc/source/basic_rf.c **** 
 1352               	.LM143:
 1353 03b2 81E0      		ldi r24,lo8(1)
 1354 03b4 0895      		ret
 1359               	.Lscope22:
 1361               		.stabd	78,0,0
 1363               	.global	rf_cca_check
 1365               	rf_cca_check:
 1366               		.stabd	46,0,0
 540:../../src/radio/rf231_soc/source/basic_rf.c **** 
 541:../../src/radio/rf231_soc/source/basic_rf.c **** 
 542:../../src/radio/rf231_soc/source/basic_rf.c **** /* Returns 1 if the channel is clear
 543:../../src/radio/rf231_soc/source/basic_rf.c ****  * Returns 0 if the channel is being used
 544:../../src/radio/rf231_soc/source/basic_rf.c ****  */
 545:../../src/radio/rf231_soc/source/basic_rf.c **** int8_t rf_cca_check()
 546:../../src/radio/rf231_soc/source/basic_rf.c **** {
 1368               	.LM144:
 1369               	.LFBB23:
 1370 03b6 CF93      		push r28
 1371 03b8 DF93      		push r29
 1372               	/* prologue: function */
 1373               	/* frame size = 0 */
 1374               	/* stack size = 2 */
 1375               	.L__stack_usage = 2
 547:../../src/radio/rf231_soc/source/basic_rf.c **** 	uint8_t trx_status, cca_value;
 548:../../src/radio/rf231_soc/source/basic_rf.c **** 
 549:../../src/radio/rf231_soc/source/basic_rf.c **** 	if(!rf_ready)
 1377               	.LM145:
 1378 03ba 8091 0000 		lds r24,rf_ready
 1379 03be 8823      		tst r24
 1380 03c0 01F0      		breq .L112
 1381               	.L105:
 550:../../src/radio/rf231_soc/source/basic_rf.c **** 		return NRK_ERROR;
 551:../../src/radio/rf231_soc/source/basic_rf.c **** 
 552:../../src/radio/rf231_soc/source/basic_rf.c **** 	/* Wait for radio to be in a ready state */
 553:../../src/radio/rf231_soc/source/basic_rf.c **** 	do{
 554:../../src/radio/rf231_soc/source/basic_rf.c **** 		trx_status = (TRX_STATUS & 0x1F);
 1383               	.LM146:
 1384 03c2 8091 4101 		lds r24,321
 1385 03c6 C82F      		mov r28,r24
 1386 03c8 CF71      		andi r28,lo8(31)
 555:../../src/radio/rf231_soc/source/basic_rf.c **** 	}while((trx_status == BUSY_TX) || (trx_status == BUSY_RX)
 1388               	.LM147:
 1389 03ca 9FEF      		ldi r25,lo8(-1)
 1390 03cc 9C0F      		add r25,r28
 556:../../src/radio/rf231_soc/source/basic_rf.c **** 			|| (trx_status == BUSY_RX_AACK) || (trx_status == BUSY_TX_ARET)
 557:../../src/radio/rf231_soc/source/basic_rf.c **** 			|| (trx_status == STATE_TRANSITION_IN_PROGRESS)); 
 1392               	.LM148:
 1393 03ce 9230      		cpi r25,lo8(2)
 1394 03d0 00F0      		brlo .L105
 556:../../src/radio/rf231_soc/source/basic_rf.c **** 			|| (trx_status == BUSY_RX_AACK) || (trx_status == BUSY_TX_ARET)
 1396               	.LM149:
 1397 03d2 C131      		cpi r28,lo8(17)
 1398 03d4 01F0      		breq .L105
 1399 03d6 C231      		cpi r28,lo8(18)
 1400 03d8 01F0      		breq .L105
 1402               	.LM150:
 1403 03da CF31      		cpi r28,lo8(31)
 1404 03dc 01F0      		breq .L105
 558:../../src/radio/rf231_soc/source/basic_rf.c **** 
 559:../../src/radio/rf231_soc/source/basic_rf.c **** 	/* Return error if radio not in a tx-ready state */
 560:../../src/radio/rf231_soc/source/basic_rf.c **** 	if((trx_status != TRX_OFF) && (trx_status != RX_ON) 
 1406               	.LM151:
 1407 03de C830      		cpi r28,lo8(8)
 1408 03e0 01F0      		breq .L109
 1410               	.LM152:
 1411 03e2 8F70      		andi r24,lo8(15)
 1412 03e4 8630      		cpi r24,lo8(6)
 1413 03e6 01F4      		brne .L112
 1414               	.L109:
 561:../../src/radio/rf231_soc/source/basic_rf.c **** 			&& (trx_status != RX_AACK_ON))
 562:../../src/radio/rf231_soc/source/basic_rf.c **** 		return NRK_ERROR;
 563:../../src/radio/rf231_soc/source/basic_rf.c **** 	
 564:../../src/radio/rf231_soc/source/basic_rf.c **** 	rf_cmd(RX_AACK_ON);
 1416               	.LM153:
 1417 03e8 86E1      		ldi r24,lo8(22)
 1418 03ea 0E94 0000 		call rf_cmd
 565:../../src/radio/rf231_soc/source/basic_rf.c **** 
 566:../../src/radio/rf231_soc/source/basic_rf.c **** 	PHY_CC_CCA |= (1 << CCA_REQUEST);
 1420               	.LM154:
 1421 03ee 8091 4801 		lds r24,328
 1422 03f2 8068      		ori r24,lo8(-128)
 1423 03f4 8093 4801 		sts 328,r24
 1424               	.L110:
 567:../../src/radio/rf231_soc/source/basic_rf.c **** 	while(!(TRX_STATUS & (1 << CCA_DONE)))
 1426               	.LM155:
 1427 03f8 8091 4101 		lds r24,321
 1428 03fc 87FF      		sbrs r24,7
 1429 03fe 00C0      		rjmp .L110
 568:../../src/radio/rf231_soc/source/basic_rf.c **** 		continue;
 569:../../src/radio/rf231_soc/source/basic_rf.c **** 	cca_value = (TRX_STATUS & (1 << CCA_STATUS)) ? 1 : 0;
 1431               	.LM156:
 1432 0400 D091 4101 		lds r29,321
 570:../../src/radio/rf231_soc/source/basic_rf.c **** 	rf_cmd(trx_status);
 1434               	.LM157:
 1435 0404 8C2F      		mov r24,r28
 1436 0406 0E94 0000 		call rf_cmd
 569:../../src/radio/rf231_soc/source/basic_rf.c **** 	rf_cmd(trx_status);
 1438               	.LM158:
 1439 040a D6FB      		bst r29,6
 1440 040c 8827      		clr r24
 1441 040e 80F9      		bld r24,0
 571:../../src/radio/rf231_soc/source/basic_rf.c **** 
 572:../../src/radio/rf231_soc/source/basic_rf.c **** 	return cca_value;
 1443               	.LM159:
 1444 0410 00C0      		rjmp .L104
 1445               	.L112:
 550:../../src/radio/rf231_soc/source/basic_rf.c **** 
 1447               	.LM160:
 1448 0412 8FEF      		ldi r24,lo8(-1)
 1449               	.L104:
 1450               	/* epilogue start */
 573:../../src/radio/rf231_soc/source/basic_rf.c **** }
 1452               	.LM161:
 1453 0414 DF91      		pop r29
 1454 0416 CF91      		pop r28
 1455 0418 0895      		ret
 1457               	.Lscope23:
 1459               		.stabd	78,0,0
 1461               	.global	rf_rx_packet_nonblock
 1463               	rf_rx_packet_nonblock:
 1464               		.stabd	46,0,0
 574:../../src/radio/rf231_soc/source/basic_rf.c **** 
 575:../../src/radio/rf231_soc/source/basic_rf.c **** 
 576:../../src/radio/rf231_soc/source/basic_rf.c **** 
 577:../../src/radio/rf231_soc/source/basic_rf.c **** int8_t rf_rx_packet_nonblock()
 578:../../src/radio/rf231_soc/source/basic_rf.c **** {
 1466               	.LM162:
 1467               	.LFBB24:
 1468               	/* prologue: function */
 1469               	/* frame size = 0 */
 1470               	/* stack size = 0 */
 1471               	.L__stack_usage = 0
 579:../../src/radio/rf231_soc/source/basic_rf.c **** 	/*
 580:../../src/radio/rf231_soc/source/basic_rf.c **** 	#ifdef RADIO_PRIORITY_CEILING
 581:../../src/radio/rf231_soc/source/basic_rf.c **** 	nrk_sem_pend(radio_sem);
 582:../../src/radio/rf231_soc/source/basic_rf.c **** 	#endif
 583:../../src/radio/rf231_soc/source/basic_rf.c **** 	
 584:../../src/radio/rf231_soc/source/basic_rf.c **** 	#ifdef RADIO_PRIORITY_CEILING
 585:../../src/radio/rf231_soc/source/basic_rf.c **** 	nrk_sem_post(radio_sem);
 586:../../src/radio/rf231_soc/source/basic_rf.c **** 	#endif
 587:../../src/radio/rf231_soc/source/basic_rf.c **** 	*/
 588:../../src/radio/rf231_soc/source/basic_rf.c **** 	
 589:../../src/radio/rf231_soc/source/basic_rf.c **** 	uint8_t *frame_start = &TRXFBST;
 590:../../src/radio/rf231_soc/source/basic_rf.c **** 
 591:../../src/radio/rf231_soc/source/basic_rf.c **** 	if(!rf_ready)
 1473               	.LM163:
 1474 041a 8091 0000 		lds r24,rf_ready
 1475 041e 8823      		tst r24
 1476 0420 01F4      		brne .+2
 1477 0422 00C0      		rjmp .L132
 592:../../src/radio/rf231_soc/source/basic_rf.c **** 		return NRK_ERROR;
 593:../../src/radio/rf231_soc/source/basic_rf.c **** 
 594:../../src/radio/rf231_soc/source/basic_rf.c ****    if(!rx_ready)
 1479               	.LM164:
 1480 0424 8091 0000 		lds r24,rx_ready
 1481 0428 8823      		tst r24
 1482 042a 01F4      		brne .+2
 1483 042c 00C0      		rjmp .L131
 595:../../src/radio/rf231_soc/source/basic_rf.c ****       return 0;
 596:../../src/radio/rf231_soc/source/basic_rf.c ****    else if((TST_RX_LENGTH - 2) > rfSettings.pRxInfo->max_length)
 1485               	.LM165:
 1486 042e 8091 7B01 		lds r24,379
 1487 0432 E091 0000 		lds r30,rfSettings
 1488 0436 F091 0000 		lds r31,rfSettings+1
 1489 043a 90E0      		ldi r25,0
 1490 043c 0297      		sbiw r24,2
 1491 043e 2481      		ldd r18,Z+4
 1492 0440 3327      		clr r19
 1493 0442 27FD      		sbrc r18,7
 1494 0444 3095      		com r19
 1495 0446 2817      		cp r18,r24
 1496 0448 3907      		cpc r19,r25
 1497 044a 04F4      		brge .+2
 1498 044c 00C0      		rjmp .L132
 1499               	.LBB4:
 1500               	.LBB5:
 597:../../src/radio/rf231_soc/source/basic_rf.c **** 		return NRK_ERROR;
 598:../../src/radio/rf231_soc/source/basic_rf.c **** 
 599:../../src/radio/rf231_soc/source/basic_rf.c **** 
 600:../../src/radio/rf231_soc/source/basic_rf.c **** 	ieee_mac_frame_header_t *machead = frame_start;
 601:../../src/radio/rf231_soc/source/basic_rf.c **** 
 602:../../src/radio/rf231_soc/source/basic_rf.c **** 	rfSettings.pRxInfo->seqNumber = machead->seq_num;
 1502               	.LM166:
 1503 044e E091 0000 		lds r30,rfSettings
 1504 0452 F091 0000 		lds r31,rfSettings+1
 1505 0456 8091 8201 		lds r24,386
 1506 045a 8083      		st Z,r24
 603:../../src/radio/rf231_soc/source/basic_rf.c **** 	rfSettings.pRxInfo->srcAddr = machead->src_addr;
 1508               	.LM167:
 1509 045c E091 0000 		lds r30,rfSettings
 1510 0460 F091 0000 		lds r31,rfSettings+1
 1511 0464 8091 8701 		lds r24,391
 1512 0468 9091 8801 		lds r25,391+1
 1513 046c 9283      		std Z+2,r25
 1514 046e 8183      		std Z+1,r24
 604:../../src/radio/rf231_soc/source/basic_rf.c **** 	rfSettings.pRxInfo->length = TST_RX_LENGTH - sizeof(ieee_mac_frame_header_t) - 2;
 1516               	.LM168:
 1517 0470 E091 0000 		lds r30,rfSettings
 1518 0474 F091 0000 		lds r31,rfSettings+1
 1519 0478 8091 7B01 		lds r24,379
 1520 047c 8B50      		subi r24,lo8(-(-11))
 1521 047e 8383      		std Z+3,r24
 605:../../src/radio/rf231_soc/source/basic_rf.c **** 
 606:../../src/radio/rf231_soc/source/basic_rf.c **** 	if((rfSettings.pRxInfo->length > rfSettings.pRxInfo->max_length)
 1523               	.LM169:
 1524 0480 A091 0000 		lds r26,rfSettings
 1525 0484 B091 0000 		lds r27,rfSettings+1
 1526 0488 E091 0000 		lds r30,rfSettings
 1527 048c F091 0000 		lds r31,rfSettings+1
 1528 0490 1396      		adiw r26,3
 1529 0492 9C91      		ld r25,X
 1530 0494 8481      		ldd r24,Z+4
 1531 0496 8917      		cp r24,r25
 1532 0498 04F0      		brlt .L126
 607:../../src/radio/rf231_soc/source/basic_rf.c **** 			|| (rfSettings.pRxInfo->length < 0)){
 1534               	.LM170:
 1535 049a E091 0000 		lds r30,rfSettings
 1536 049e F091 0000 		lds r31,rfSettings+1
 1537 04a2 8381      		ldd r24,Z+3
 1538 04a4 87FF      		sbrs r24,7
 1539 04a6 00C0      		rjmp .L127
 1540               	.L126:
 608:../../src/radio/rf231_soc/source/basic_rf.c **** 		rx_ready = 0;
 1542               	.LM171:
 1543 04a8 1092 0000 		sts rx_ready,__zero_reg__
 609:../../src/radio/rf231_soc/source/basic_rf.c ****       TRX_CTRL_2 &= ~(1 << RX_SAFE_MODE);
 1545               	.LM172:
 1546 04ac 8091 4C01 		lds r24,332
 1547 04b0 8F77      		andi r24,lo8(127)
 1548 04b2 8093 4C01 		sts 332,r24
 610:../../src/radio/rf231_soc/source/basic_rf.c **** 		TRX_CTRL_2 |= (1 << RX_SAFE_MODE);
 1550               	.LM173:
 1551 04b6 8091 4C01 		lds r24,332
 1552 04ba 8068      		ori r24,lo8(-128)
 1553 04bc 8093 4C01 		sts 332,r24
 1554 04c0 00C0      		rjmp .L132
 1555               	.L127:
 611:../../src/radio/rf231_soc/source/basic_rf.c **** 		return NRK_ERROR;
 612:../../src/radio/rf231_soc/source/basic_rf.c **** 	}
 613:../../src/radio/rf231_soc/source/basic_rf.c **** 
 614:../../src/radio/rf231_soc/source/basic_rf.c **** 	memcpy(rfSettings.pRxInfo->pPayload, frame_start 
 615:../../src/radio/rf231_soc/source/basic_rf.c **** 			+ sizeof(ieee_mac_frame_header_t), rfSettings.pRxInfo->length);
 1557               	.LM174:
 1558 04c2 A091 0000 		lds r26,rfSettings
 1559 04c6 B091 0000 		lds r27,rfSettings+1
 614:../../src/radio/rf231_soc/source/basic_rf.c **** 			+ sizeof(ieee_mac_frame_header_t), rfSettings.pRxInfo->length);
 1561               	.LM175:
 1562 04ca E091 0000 		lds r30,rfSettings
 1563 04ce F091 0000 		lds r31,rfSettings+1
 1564 04d2 1396      		adiw r26,3
 1565 04d4 4C91      		ld r20,X
 1566 04d6 5527      		clr r21
 1567 04d8 47FD      		sbrc r20,7
 1568 04da 5095      		com r21
 1569 04dc 69E8      		ldi r22,lo8(-119)
 1570 04de 71E0      		ldi r23,lo8(1)
 1571 04e0 8581      		ldd r24,Z+5
 1572 04e2 9681      		ldd r25,Z+6
 1573 04e4 0E94 0000 		call memcpy
 616:../../src/radio/rf231_soc/source/basic_rf.c **** 
 617:../../src/radio/rf231_soc/source/basic_rf.c ****    /* if reset packet received, perform reset */
 618:../../src/radio/rf231_soc/source/basic_rf.c ****    if(wireless_prog && (rfSettings.pRxInfo->length == 16)){
 1575               	.LM176:
 1576 04e8 8091 0000 		lds r24,wireless_prog
 1577 04ec 8823      		tst r24
 1578 04ee 01F4      		brne .+2
 1579 04f0 00C0      		rjmp .L128
 1580 04f2 E091 0000 		lds r30,rfSettings
 1581 04f6 F091 0000 		lds r31,rfSettings+1
 1582 04fa 8381      		ldd r24,Z+3
 1583 04fc 8031      		cpi r24,lo8(16)
 1584 04fe 01F4      		brne .L128
 619:../../src/radio/rf231_soc/source/basic_rf.c ****       if(strncmp(reset_val, rfSettings.pRxInfo->pPayload, 4) == 0){
 1586               	.LM177:
 1587 0500 E091 0000 		lds r30,rfSettings
 1588 0504 F091 0000 		lds r31,rfSettings+1
 1589 0508 6581      		ldd r22,Z+5
 1590 050a 7681      		ldd r23,Z+6
 1591 050c 44E0      		ldi r20,lo8(4)
 1592 050e 50E0      		ldi r21,0
 1593 0510 80E0      		ldi r24,lo8(reset_val)
 1594 0512 90E0      		ldi r25,hi8(reset_val)
 1595 0514 0E94 0000 		call strncmp
 1596 0518 892B      		or r24,r25
 1597 051a 01F4      		brne .L128
 620:../../src/radio/rf231_soc/source/basic_rf.c ****          if(strncmp(reset_val, rfSettings.pRxInfo->pPayload, 16) == 0){
 1599               	.LM178:
 1600 051c E091 0000 		lds r30,rfSettings
 1601 0520 F091 0000 		lds r31,rfSettings+1
 1602 0524 6581      		ldd r22,Z+5
 1603 0526 7681      		ldd r23,Z+6
 1604 0528 40E1      		ldi r20,lo8(16)
 1605 052a 50E0      		ldi r21,0
 1606 052c 80E0      		ldi r24,lo8(reset_val)
 1607 052e 90E0      		ldi r25,hi8(reset_val)
 1608 0530 0E94 0000 		call strncmp
 1609 0534 892B      		or r24,r25
 1610 0536 01F4      		brne .L128
 621:../../src/radio/rf231_soc/source/basic_rf.c ****             wdt_enable(WDTO_500MS);
 1612               	.LM179:
 1613 0538 9DE0      		ldi r25,lo8(13)
 1614 053a 88E1      		ldi r24,lo8(24)
 1615               	/* #APP */
 1616               	 ;  621 "../../src/radio/rf231_soc/source/basic_rf.c" 1
 1617 053c 0FB6      		in __tmp_reg__,__SREG__
 1618 053e F894      		cli
 1619 0540 A895      		wdr
 1620 0542 8093 6000 		sts 96,r24
 1621 0546 0FBE      		out __SREG__,__tmp_reg__
 1622 0548 9093 6000 		sts 96,r25
 1623               		
 1624               	 ;  0 "" 2
 622:../../src/radio/rf231_soc/source/basic_rf.c ****             nrk_led_set(0);
 1626               	.LM180:
 1627               	/* #NOAPP */
 1628 054c 80E0      		ldi r24,0
 1629 054e 90E0      		ldi r25,0
 1630 0550 0E94 0000 		call nrk_led_set
 623:../../src/radio/rf231_soc/source/basic_rf.c ****             nrk_led_set(1);
 1632               	.LM181:
 1633 0554 81E0      		ldi r24,lo8(1)
 1634 0556 90E0      		ldi r25,0
 1635 0558 0E94 0000 		call nrk_led_set
 624:../../src/radio/rf231_soc/source/basic_rf.c ****             nrk_led_set(2);
 1637               	.LM182:
 1638 055c 82E0      		ldi r24,lo8(2)
 1639 055e 90E0      		ldi r25,0
 1640 0560 0E94 0000 		call nrk_led_set
 625:../../src/radio/rf231_soc/source/basic_rf.c ****             nrk_led_set(3);
 1642               	.LM183:
 1643 0564 83E0      		ldi r24,lo8(3)
 1644 0566 90E0      		ldi r25,0
 1645 0568 0E94 0000 		call nrk_led_set
 1646               	.L129:
 1647 056c 00C0      		rjmp .L129
 1648               	.L128:
 626:../../src/radio/rf231_soc/source/basic_rf.c ****             while(1)
 627:../../src/radio/rf231_soc/source/basic_rf.c ****                continue;
 628:../../src/radio/rf231_soc/source/basic_rf.c ****          }
 629:../../src/radio/rf231_soc/source/basic_rf.c ****       }
 630:../../src/radio/rf231_soc/source/basic_rf.c ****    }
 631:../../src/radio/rf231_soc/source/basic_rf.c **** 
 632:../../src/radio/rf231_soc/source/basic_rf.c **** 	/* I am assuming that ackRequest is supposed to
 633:../../src/radio/rf231_soc/source/basic_rf.c **** 	 * be set, not read, by rf_basic */
 634:../../src/radio/rf231_soc/source/basic_rf.c **** 	rfSettings.pRxInfo->ackRequest = machead->fcf.ack_request;
 1650               	.LM184:
 1651 056e E091 0000 		lds r30,rfSettings
 1652 0572 F091 0000 		lds r31,rfSettings+1
 1653 0576 8091 8001 		lds r24,384
 1654 057a 85FB      		bst r24,5
 1655 057c 8827      		clr r24
 1656 057e 80F9      		bld r24,0
 1657 0580 8783      		std Z+7,r24
 635:../../src/radio/rf231_soc/source/basic_rf.c **** 	//rfSettings.pRxInfo->rssi = *(frame_start + TST_RX_LENGTH);
 636:../../src/radio/rf231_soc/source/basic_rf.c **** 	rfSettings.pRxInfo->rssi = PHY_ED_LEVEL;
 1659               	.LM185:
 1660 0582 E091 0000 		lds r30,rfSettings
 1661 0586 F091 0000 		lds r31,rfSettings+1
 1662 058a 8091 4701 		lds r24,327
 1663 058e 8087      		std Z+8,r24
 637:../../src/radio/rf231_soc/source/basic_rf.c **** 	rfSettings.pRxInfo->actualRssi = PHY_RSSI >> 3;
 1665               	.LM186:
 1666 0590 E091 0000 		lds r30,rfSettings
 1667 0594 F091 0000 		lds r31,rfSettings+1
 1668 0598 8091 4601 		lds r24,326
 1669 059c 8695      		lsr r24
 1670 059e 8695      		lsr r24
 1671 05a0 8695      		lsr r24
 1672 05a2 8187      		std Z+9,r24
 638:../../src/radio/rf231_soc/source/basic_rf.c **** 	rfSettings.pRxInfo->energyDetectionLevel = PHY_ED_LEVEL;
 1674               	.LM187:
 1675 05a4 E091 0000 		lds r30,rfSettings
 1676 05a8 F091 0000 		lds r31,rfSettings+1
 1677 05ac 8091 4701 		lds r24,327
 1678 05b0 8287      		std Z+10,r24
 639:../../src/radio/rf231_soc/source/basic_rf.c **** 	rfSettings.pRxInfo->linkQualityIndication = *(frame_start + TST_RX_LENGTH);
 1680               	.LM188:
 1681 05b2 A091 0000 		lds r26,rfSettings
 1682 05b6 B091 0000 		lds r27,rfSettings+1
 1683 05ba E091 7B01 		lds r30,379
 1684 05be F0E0      		ldi r31,0
 1685 05c0 E058      		subi r30,-128
 1686 05c2 FE4F      		sbci r31,-2
 1687 05c4 8081      		ld r24,Z
 1688 05c6 1B96      		adiw r26,11
 1689 05c8 8C93      		st X,r24
 640:../../src/radio/rf231_soc/source/basic_rf.c **** 
 641:../../src/radio/rf231_soc/source/basic_rf.c **** 	/* Reset frame buffer protection */
 642:../../src/radio/rf231_soc/source/basic_rf.c **** 	rx_ready = 0;
 1691               	.LM189:
 1692 05ca 1092 0000 		sts rx_ready,__zero_reg__
 643:../../src/radio/rf231_soc/source/basic_rf.c ****    TRX_CTRL_2 &= ~(1 << RX_SAFE_MODE);
 1694               	.LM190:
 1695 05ce 8091 4C01 		lds r24,332
 1696 05d2 8F77      		andi r24,lo8(127)
 1697 05d4 8093 4C01 		sts 332,r24
 644:../../src/radio/rf231_soc/source/basic_rf.c **** 	TRX_CTRL_2 |= (1 << RX_SAFE_MODE);
 1699               	.LM191:
 1700 05d8 8091 4C01 		lds r24,332
 1701 05dc 8068      		ori r24,lo8(-128)
 1702 05de 8093 4C01 		sts 332,r24
 645:../../src/radio/rf231_soc/source/basic_rf.c **** 
 646:../../src/radio/rf231_soc/source/basic_rf.c **** 	return NRK_OK;
 1704               	.LM192:
 1705 05e2 81E0      		ldi r24,lo8(1)
 1706 05e4 0895      		ret
 1707               	.L131:
 1708               	.LBE5:
 1709               	.LBE4:
 595:../../src/radio/rf231_soc/source/basic_rf.c ****    else if((TST_RX_LENGTH - 2) > rfSettings.pRxInfo->max_length)
 1711               	.LM193:
 1712 05e6 80E0      		ldi r24,0
 1713 05e8 0895      		ret
 1714               	.L132:
 592:../../src/radio/rf231_soc/source/basic_rf.c **** 
 1716               	.LM194:
 1717 05ea 8FEF      		ldi r24,lo8(-1)
 647:../../src/radio/rf231_soc/source/basic_rf.c **** }
 1719               	.LM195:
 1720 05ec 0895      		ret
 1722               	.Lscope24:
 1724               		.stabd	78,0,0
 1726               	.global	__vector_64
 1728               	__vector_64:
 1729               		.stabd	46,0,0
 648:../../src/radio/rf231_soc/source/basic_rf.c **** 
 649:../../src/radio/rf231_soc/source/basic_rf.c **** 
 650:../../src/radio/rf231_soc/source/basic_rf.c **** SIGNAL(TRX24_RX_END_vect)
 651:../../src/radio/rf231_soc/source/basic_rf.c **** {	
 652:../../src/radio/rf231_soc/source/basic_rf.c **** 	uint8_t i, *byte_ptr = &TRXFBST;
 653:../../src/radio/rf231_soc/source/basic_rf.c **** 
 654:../../src/radio/rf231_soc/source/basic_rf.c **** 	/* Verbose mode print block */
 655:../../src/radio/rf231_soc/source/basic_rf.c **** 	vprintf("RX_END IRQ!\r\n");	
 656:../../src/radio/rf231_soc/source/basic_rf.c **** 	for(i=0; i<TST_RX_LENGTH; i++){
 657:../../src/radio/rf231_soc/source/basic_rf.c **** 		vprintf("0x%02x ", byte_ptr[i]);
 658:../../src/radio/rf231_soc/source/basic_rf.c **** 		if(((i+1) % 16) == 0)
 659:../../src/radio/rf231_soc/source/basic_rf.c **** 			vprintf("\r\n");
 660:../../src/radio/rf231_soc/source/basic_rf.c **** 	}
 661:../../src/radio/rf231_soc/source/basic_rf.c **** 	vprintf("\r\n");
 662:../../src/radio/rf231_soc/source/basic_rf.c **** 
 663:../../src/radio/rf231_soc/source/basic_rf.c ****    if((PHY_RSSI >> RX_CRC_VALID) & 0x1){
 664:../../src/radio/rf231_soc/source/basic_rf.c ****       rx_ready = 1;
 665:../../src/radio/rf231_soc/source/basic_rf.c ****    } else {
 666:../../src/radio/rf231_soc/source/basic_rf.c ****       printf("RX end failed checksum!\r\n");
 667:../../src/radio/rf231_soc/source/basic_rf.c ****    }
 668:../../src/radio/rf231_soc/source/basic_rf.c ****    IRQ_STATUS = (1 << RX_END);
 669:../../src/radio/rf231_soc/source/basic_rf.c **** 	
 670:../../src/radio/rf231_soc/source/basic_rf.c **** 	if((PHY_RSSI >> RX_CRC_VALID) & 0x1) {
 671:../../src/radio/rf231_soc/source/basic_rf.c **** 		if (use_glossy) rf_glossy_interrupt();
 672:../../src/radio/rf231_soc/source/basic_rf.c **** 	}
 673:../../src/radio/rf231_soc/source/basic_rf.c **** 
 674:../../src/radio/rf231_soc/source/basic_rf.c **** 	if(rx_end_func)
 675:../../src/radio/rf231_soc/source/basic_rf.c **** 		rx_end_func();
 676:../../src/radio/rf231_soc/source/basic_rf.c **** 
 677:../../src/radio/rf231_soc/source/basic_rf.c **** 	return;
 678:../../src/radio/rf231_soc/source/basic_rf.c **** }
 679:../../src/radio/rf231_soc/source/basic_rf.c **** 
 680:../../src/radio/rf231_soc/source/basic_rf.c **** 
 681:../../src/radio/rf231_soc/source/basic_rf.c **** /* These interrupt handlers are useful for finding
 682:../../src/radio/rf231_soc/source/basic_rf.c ****  * out the exact order of events during a transmission */
 683:../../src/radio/rf231_soc/source/basic_rf.c **** 
 684:../../src/radio/rf231_soc/source/basic_rf.c **** SIGNAL(TRX24_AWAKE_vect)
 685:../../src/radio/rf231_soc/source/basic_rf.c **** {
 1731               	.LM196:
 1732               	.LFBB25:
 1733 05ee 1F92      		push r1
 1734 05f0 0F92      		push r0
 1735 05f2 0FB6      		in r0,__SREG__
 1736 05f4 0F92      		push r0
 1737 05f6 1124      		clr __zero_reg__
 1738 05f8 8F93      		push r24
 1739               	/* prologue: Signal */
 1740               	/* frame size = 0 */
 1741               	/* stack size = 4 */
 1742               	.L__stack_usage = 4
 686:../../src/radio/rf231_soc/source/basic_rf.c **** 	vprintf("RADIO AWAKE IRQ!\r\n");
 687:../../src/radio/rf231_soc/source/basic_rf.c **** 	IRQ_STATUS = (1 << AWAKE);
 1744               	.LM197:
 1745 05fa 80E8      		ldi r24,lo8(-128)
 1746 05fc 8093 4F01 		sts 335,r24
 1747               	/* epilogue start */
 688:../../src/radio/rf231_soc/source/basic_rf.c **** 
 689:../../src/radio/rf231_soc/source/basic_rf.c **** 	return;
 690:../../src/radio/rf231_soc/source/basic_rf.c **** }
 1749               	.LM198:
 1750 0600 8F91      		pop r24
 1751 0602 0F90      		pop r0
 1752 0604 0FBE      		out __SREG__,r0
 1753 0606 0F90      		pop r0
 1754 0608 1F90      		pop r1
 1755 060a 1895      		reti
 1757               	.Lscope25:
 1759               		.stabd	78,0,0
 1761               	.global	__vector_63
 1763               	__vector_63:
 1764               		.stabd	46,0,0
 691:../../src/radio/rf231_soc/source/basic_rf.c **** 
 692:../../src/radio/rf231_soc/source/basic_rf.c **** SIGNAL(TRX24_TX_END_vect)
 693:../../src/radio/rf231_soc/source/basic_rf.c **** {
 1766               	.LM199:
 1767               	.LFBB26:
 1768 060c 1F92      		push r1
 1769 060e 0F92      		push r0
 1770 0610 0FB6      		in r0,__SREG__
 1771 0612 0F92      		push r0
 1772 0614 1124      		clr __zero_reg__
 1773 0616 8F93      		push r24
 1774               	/* prologue: Signal */
 1775               	/* frame size = 0 */
 1776               	/* stack size = 4 */
 1777               	.L__stack_usage = 4
 694:../../src/radio/rf231_soc/source/basic_rf.c **** 	vprintf("TX_END IRQ!\r\n");
 695:../../src/radio/rf231_soc/source/basic_rf.c **** 	tx_done = 1;
 1779               	.LM200:
 1780 0618 81E0      		ldi r24,lo8(1)
 1781 061a 8093 0000 		sts tx_done,r24
 696:../../src/radio/rf231_soc/source/basic_rf.c ****    IRQ_STATUS = (1 << TX_END);
 1783               	.LM201:
 1784 061e 80E4      		ldi r24,lo8(64)
 1785 0620 8093 4F01 		sts 335,r24
 1786               	/* epilogue start */
 697:../../src/radio/rf231_soc/source/basic_rf.c **** 
 698:../../src/radio/rf231_soc/source/basic_rf.c **** #ifdef RADIO_CC2591
 699:../../src/radio/rf231_soc/source/basic_rf.c **** 	rf_cc2591_rx_on();
 700:../../src/radio/rf231_soc/source/basic_rf.c **** #endif
 701:../../src/radio/rf231_soc/source/basic_rf.c **** 
 702:../../src/radio/rf231_soc/source/basic_rf.c **** 	return;
 703:../../src/radio/rf231_soc/source/basic_rf.c **** }
 1788               	.LM202:
 1789 0624 8F91      		pop r24
 1790 0626 0F90      		pop r0
 1791 0628 0FBE      		out __SREG__,r0
 1792 062a 0F90      		pop r0
 1793 062c 1F90      		pop r1
 1794 062e 1895      		reti
 1796               	.Lscope26:
 1798               		.stabd	78,0,0
 1800               	.global	__vector_62
 1802               	__vector_62:
 1803               		.stabd	46,0,0
 704:../../src/radio/rf231_soc/source/basic_rf.c **** 
 705:../../src/radio/rf231_soc/source/basic_rf.c **** SIGNAL(TRX24_XAH_AMI_vect)
 706:../../src/radio/rf231_soc/source/basic_rf.c **** {
 1805               	.LM203:
 1806               	.LFBB27:
 1807 0630 1F92      		push r1
 1808 0632 0F92      		push r0
 1809 0634 0FB6      		in r0,__SREG__
 1810 0636 0F92      		push r0
 1811 0638 1124      		clr __zero_reg__
 1812 063a 8F93      		push r24
 1813               	/* prologue: Signal */
 1814               	/* frame size = 0 */
 1815               	/* stack size = 4 */
 1816               	.L__stack_usage = 4
 707:../../src/radio/rf231_soc/source/basic_rf.c **** 	vprintf("AMI IRQ!\r\n");
 708:../../src/radio/rf231_soc/source/basic_rf.c **** 	IRQ_STATUS = (1 << AMI);
 1818               	.LM204:
 1819 063c 80E2      		ldi r24,lo8(32)
 1820 063e 8093 4F01 		sts 335,r24
 1821               	/* epilogue start */
 709:../../src/radio/rf231_soc/source/basic_rf.c **** 
 710:../../src/radio/rf231_soc/source/basic_rf.c **** 	return;
 711:../../src/radio/rf231_soc/source/basic_rf.c **** }
 1823               	.LM205:
 1824 0642 8F91      		pop r24
 1825 0644 0F90      		pop r0
 1826 0646 0FBE      		out __SREG__,r0
 1827 0648 0F90      		pop r0
 1828 064a 1F90      		pop r1
 1829 064c 1895      		reti
 1831               	.Lscope27:
 1833               		.stabd	78,0,0
 1835               	.global	__vector_61
 1837               	__vector_61:
 1838               		.stabd	46,0,0
 712:../../src/radio/rf231_soc/source/basic_rf.c **** 
 713:../../src/radio/rf231_soc/source/basic_rf.c **** SIGNAL(TRX24_CCA_ED_DONE_vect)
 714:../../src/radio/rf231_soc/source/basic_rf.c **** {
 1840               	.LM206:
 1841               	.LFBB28:
 1842 064e 1F92      		push r1
 1843 0650 0F92      		push r0
 1844 0652 0FB6      		in r0,__SREG__
 1845 0654 0F92      		push r0
 1846 0656 1124      		clr __zero_reg__
 1847 0658 8F93      		push r24
 1848               	/* prologue: Signal */
 1849               	/* frame size = 0 */
 1850               	/* stack size = 4 */
 1851               	.L__stack_usage = 4
 715:../../src/radio/rf231_soc/source/basic_rf.c **** 	vprintf("CCA_ED_DONE IRQ!\r\n");
 716:../../src/radio/rf231_soc/source/basic_rf.c **** 	IRQ_STATUS = (1 << CCA_ED_DONE);
 1853               	.LM207:
 1854 065a 80E1      		ldi r24,lo8(16)
 1855 065c 8093 4F01 		sts 335,r24
 1856               	/* epilogue start */
 717:../../src/radio/rf231_soc/source/basic_rf.c **** 
 718:../../src/radio/rf231_soc/source/basic_rf.c **** 	return;
 719:../../src/radio/rf231_soc/source/basic_rf.c **** }
 1858               	.LM208:
 1859 0660 8F91      		pop r24
 1860 0662 0F90      		pop r0
 1861 0664 0FBE      		out __SREG__,r0
 1862 0666 0F90      		pop r0
 1863 0668 1F90      		pop r1
 1864 066a 1895      		reti
 1866               	.Lscope28:
 1868               		.stabd	78,0,0
 1870               	.global	__vector_59
 1872               	__vector_59:
 1873               		.stabd	46,0,0
 720:../../src/radio/rf231_soc/source/basic_rf.c **** 
 721:../../src/radio/rf231_soc/source/basic_rf.c **** SIGNAL(TRX24_RX_START_vect)
 722:../../src/radio/rf231_soc/source/basic_rf.c **** {
 1875               	.LM209:
 1876               	.LFBB29:
 1877 066c 1F92      		push r1
 1878 066e 0F92      		push r0
 1879 0670 0FB6      		in r0,__SREG__
 1880 0672 0F92      		push r0
 1881 0674 1124      		clr __zero_reg__
 1882 0676 0BB6      		in r0,__RAMPZ__
 1883 0678 0F92      		push r0
 1884 067a 2F93      		push r18
 1885 067c 3F93      		push r19
 1886 067e 4F93      		push r20
 1887 0680 5F93      		push r21
 1888 0682 6F93      		push r22
 1889 0684 7F93      		push r23
 1890 0686 8F93      		push r24
 1891 0688 9F93      		push r25
 1892 068a AF93      		push r26
 1893 068c BF93      		push r27
 1894 068e EF93      		push r30
 1895 0690 FF93      		push r31
 1896               	/* prologue: Signal */
 1897               	/* frame size = 0 */
 1898               	/* stack size = 16 */
 1899               	.L__stack_usage = 16
 723:../../src/radio/rf231_soc/source/basic_rf.c **** 	vprintf("RX_START IRQ!\r\n");
 724:../../src/radio/rf231_soc/source/basic_rf.c **** 	IRQ_STATUS = (1 << RX_START);
 1901               	.LM210:
 1902 0692 84E0      		ldi r24,lo8(4)
 1903 0694 8093 4F01 		sts 335,r24
 725:../../src/radio/rf231_soc/source/basic_rf.c **** 
 726:../../src/radio/rf231_soc/source/basic_rf.c **** 	if(rx_start_func)
 1905               	.LM211:
 1906 0698 E091 0000 		lds r30,rx_start_func
 1907 069c F091 0000 		lds r31,rx_start_func+1
 1908 06a0 3097      		sbiw r30,0
 1909 06a2 01F0      		breq .L140
 727:../../src/radio/rf231_soc/source/basic_rf.c **** 		rx_start_func();
 1911               	.LM212:
 1912 06a4 0995      		icall
 1913               	.L140:
 1914               	/* epilogue start */
 728:../../src/radio/rf231_soc/source/basic_rf.c **** 
 729:../../src/radio/rf231_soc/source/basic_rf.c **** 	return;
 730:../../src/radio/rf231_soc/source/basic_rf.c **** }
 1916               	.LM213:
 1917 06a6 FF91      		pop r31
 1918 06a8 EF91      		pop r30
 1919 06aa BF91      		pop r27
 1920 06ac AF91      		pop r26
 1921 06ae 9F91      		pop r25
 1922 06b0 8F91      		pop r24
 1923 06b2 7F91      		pop r23
 1924 06b4 6F91      		pop r22
 1925 06b6 5F91      		pop r21
 1926 06b8 4F91      		pop r20
 1927 06ba 3F91      		pop r19
 1928 06bc 2F91      		pop r18
 1929 06be 0F90      		pop r0
 1930 06c0 0BBE      		out __RAMPZ__,r0
 1931 06c2 0F90      		pop r0
 1932 06c4 0FBE      		out __SREG__,r0
 1933 06c6 0F90      		pop r0
 1934 06c8 1F90      		pop r1
 1935 06ca 1895      		reti
 1937               	.Lscope29:
 1939               		.stabd	78,0,0
 1941               	.global	__vector_58
 1943               	__vector_58:
 1944               		.stabd	46,0,0
 731:../../src/radio/rf231_soc/source/basic_rf.c **** 
 732:../../src/radio/rf231_soc/source/basic_rf.c **** SIGNAL(TRX24_PLL_UNLOCK_vect)
 733:../../src/radio/rf231_soc/source/basic_rf.c **** {
 1946               	.LM214:
 1947               	.LFBB30:
 1948 06cc 1F92      		push r1
 1949 06ce 0F92      		push r0
 1950 06d0 0FB6      		in r0,__SREG__
 1951 06d2 0F92      		push r0
 1952 06d4 1124      		clr __zero_reg__
 1953 06d6 8F93      		push r24
 1954               	/* prologue: Signal */
 1955               	/* frame size = 0 */
 1956               	/* stack size = 4 */
 1957               	.L__stack_usage = 4
 734:../../src/radio/rf231_soc/source/basic_rf.c **** 	vprintf("PLL_UNLOCK IRQ!\r\n");
 735:../../src/radio/rf231_soc/source/basic_rf.c **** 	IRQ_STATUS = (1 << PLL_UNLOCK);
 1959               	.LM215:
 1960 06d8 82E0      		ldi r24,lo8(2)
 1961 06da 8093 4F01 		sts 335,r24
 1962               	/* epilogue start */
 736:../../src/radio/rf231_soc/source/basic_rf.c **** 
 737:../../src/radio/rf231_soc/source/basic_rf.c **** 	return;
 738:../../src/radio/rf231_soc/source/basic_rf.c **** }
 1964               	.LM216:
 1965 06de 8F91      		pop r24
 1966 06e0 0F90      		pop r0
 1967 06e2 0FBE      		out __SREG__,r0
 1968 06e4 0F90      		pop r0
 1969 06e6 1F90      		pop r1
 1970 06e8 1895      		reti
 1972               	.Lscope30:
 1974               		.stabd	78,0,0
 1976               	.global	__vector_57
 1978               	__vector_57:
 1979               		.stabd	46,0,0
 739:../../src/radio/rf231_soc/source/basic_rf.c **** 
 740:../../src/radio/rf231_soc/source/basic_rf.c **** SIGNAL(TRX24_PLL_LOCK_vect)
 741:../../src/radio/rf231_soc/source/basic_rf.c **** {
 1981               	.LM217:
 1982               	.LFBB31:
 1983 06ea 1F92      		push r1
 1984 06ec 0F92      		push r0
 1985 06ee 0FB6      		in r0,__SREG__
 1986 06f0 0F92      		push r0
 1987 06f2 1124      		clr __zero_reg__
 1988 06f4 8F93      		push r24
 1989               	/* prologue: Signal */
 1990               	/* frame size = 0 */
 1991               	/* stack size = 4 */
 1992               	.L__stack_usage = 4
 742:../../src/radio/rf231_soc/source/basic_rf.c **** 	vprintf("PLL_LOCK IRQ!\r\n");
 743:../../src/radio/rf231_soc/source/basic_rf.c **** 	IRQ_STATUS = (1 << PLL_LOCK);
 1994               	.LM218:
 1995 06f6 81E0      		ldi r24,lo8(1)
 1996 06f8 8093 4F01 		sts 335,r24
 1997               	/* epilogue start */
 744:../../src/radio/rf231_soc/source/basic_rf.c **** 
 745:../../src/radio/rf231_soc/source/basic_rf.c **** 	return;
 746:../../src/radio/rf231_soc/source/basic_rf.c **** }
 1999               	.LM219:
 2000 06fc 8F91      		pop r24
 2001 06fe 0F90      		pop r0
 2002 0700 0FBE      		out __SREG__,r0
 2003 0702 0F90      		pop r0
 2004 0704 1F90      		pop r1
 2005 0706 1895      		reti
 2007               	.Lscope31:
 2009               		.stabd	78,0,0
 2012               	.global	rf_set_cca_thresh
 2014               	rf_set_cca_thresh:
 2015               		.stabd	46,0,0
 747:../../src/radio/rf231_soc/source/basic_rf.c **** 
 748:../../src/radio/rf231_soc/source/basic_rf.c **** 
 749:../../src/radio/rf231_soc/source/basic_rf.c **** 
 750:../../src/radio/rf231_soc/source/basic_rf.c **** void rf_set_cca_thresh(int8_t t)
 751:../../src/radio/rf231_soc/source/basic_rf.c **** {
 2017               	.LM220:
 2018               	.LFBB32:
 2019               	/* prologue: function */
 2020               	/* frame size = 0 */
 2021               	/* stack size = 0 */
 2022               	.L__stack_usage = 0
 752:../../src/radio/rf231_soc/source/basic_rf.c **** 	CCA_THRES &= 0xF0;
 2024               	.LM221:
 2025 0708 E9E4      		ldi r30,lo8(73)
 2026 070a F1E0      		ldi r31,lo8(1)
 2027 070c 9081      		ld r25,Z
 2028 070e 907F      		andi r25,lo8(-16)
 2029 0710 9083      		st Z,r25
 753:../../src/radio/rf231_soc/source/basic_rf.c **** 	CCA_THRES |= (t & 0xF);
 2031               	.LM222:
 2032 0712 9081      		ld r25,Z
 2033 0714 8F70      		andi r24,lo8(15)
 2034 0716 982B      		or r25,r24
 2035 0718 9083      		st Z,r25
 2036 071a 0895      		ret
 2038               	.Lscope32:
 2040               		.stabd	78,0,0
 2042               	.global	rf_security_last_pkt_status
 2044               	rf_security_last_pkt_status:
 2045               		.stabd	46,0,0
 754:../../src/radio/rf231_soc/source/basic_rf.c **** 	return;
 755:../../src/radio/rf231_soc/source/basic_rf.c **** }
 756:../../src/radio/rf231_soc/source/basic_rf.c **** 
 757:../../src/radio/rf231_soc/source/basic_rf.c **** 
 758:../../src/radio/rf231_soc/source/basic_rf.c **** // Returns 1 if the last packet was encrypted, 0 otherwise
 759:../../src/radio/rf231_soc/source/basic_rf.c **** uint8_t rf_security_last_pkt_status()
 760:../../src/radio/rf231_soc/source/basic_rf.c **** {
 2047               	.LM223:
 2048               	.LFBB33:
 2049               	/* prologue: function */
 2050               	/* frame size = 0 */
 2051               	/* stack size = 0 */
 2052               	.L__stack_usage = 0
 761:../../src/radio/rf231_soc/source/basic_rf.c **** 	//return last_pkt_encrypted;
 762:../../src/radio/rf231_soc/source/basic_rf.c **** 	return NRK_ERROR;
 763:../../src/radio/rf231_soc/source/basic_rf.c **** }
 2054               	.LM224:
 2055 071c 8FEF      		ldi r24,lo8(-1)
 2056 071e 0895      		ret
 2058               	.Lscope33:
 2060               		.stabd	78,0,0
 2063               	.global	rf_security_set_ctr_counter
 2065               	rf_security_set_ctr_counter:
 2066               		.stabd	46,0,0
 764:../../src/radio/rf231_soc/source/basic_rf.c **** 
 765:../../src/radio/rf231_soc/source/basic_rf.c **** 
 766:../../src/radio/rf231_soc/source/basic_rf.c **** void rf_security_set_ctr_counter(uint8_t *counter)
 767:../../src/radio/rf231_soc/source/basic_rf.c **** {
 2068               	.LM225:
 2069               	.LFBB34:
 2070               	/* prologue: function */
 2071               	/* frame size = 0 */
 2072               	/* stack size = 0 */
 2073               	.L__stack_usage = 0
 2074 0720 0895      		ret
 2076               	.Lscope34:
 2078               		.stabd	78,0,0
 2081               	.global	rf_security_set_key
 2083               	rf_security_set_key:
 2084               		.stabd	46,0,0
 768:../../src/radio/rf231_soc/source/basic_rf.c **** 	return;
 769:../../src/radio/rf231_soc/source/basic_rf.c **** }
 770:../../src/radio/rf231_soc/source/basic_rf.c **** 
 771:../../src/radio/rf231_soc/source/basic_rf.c **** 
 772:../../src/radio/rf231_soc/source/basic_rf.c **** void rf_security_set_key(uint8_t *key)
 773:../../src/radio/rf231_soc/source/basic_rf.c **** {
 2086               	.LM226:
 2087               	.LFBB35:
 2088               	/* prologue: function */
 2089               	/* frame size = 0 */
 2090               	/* stack size = 0 */
 2091               	.L__stack_usage = 0
 2092 0722 0895      		ret
 2094               	.Lscope35:
 2096               		.stabd	78,0,0
 2098               	.global	rf_security_disable
 2100               	rf_security_disable:
 2101               		.stabd	46,0,0
 774:../../src/radio/rf231_soc/source/basic_rf.c **** 	return;
 775:../../src/radio/rf231_soc/source/basic_rf.c **** }
 776:../../src/radio/rf231_soc/source/basic_rf.c **** 
 777:../../src/radio/rf231_soc/source/basic_rf.c **** 
 778:../../src/radio/rf231_soc/source/basic_rf.c **** 
 779:../../src/radio/rf231_soc/source/basic_rf.c **** void rf_security_disable()
 780:../../src/radio/rf231_soc/source/basic_rf.c **** {
 2103               	.LM227:
 2104               	.LFBB36:
 2105               	/* prologue: function */
 2106               	/* frame size = 0 */
 2107               	/* stack size = 0 */
 2108               	.L__stack_usage = 0
 2109 0724 0895      		ret
 2111               	.Lscope36:
 2113               		.stabd	78,0,0
 2118               	.global	rf_tx_tdma_packet
 2120               	rf_tx_tdma_packet:
 2121               		.stabd	46,0,0
 781:../../src/radio/rf231_soc/source/basic_rf.c **** 	return;
 782:../../src/radio/rf231_soc/source/basic_rf.c **** }
 783:../../src/radio/rf231_soc/source/basic_rf.c **** 
 784:../../src/radio/rf231_soc/source/basic_rf.c **** 
 785:../../src/radio/rf231_soc/source/basic_rf.c **** 
 786:../../src/radio/rf231_soc/source/basic_rf.c **** /**********************************************************
 787:../../src/radio/rf231_soc/source/basic_rf.c ****  ******************* NOT IMPLEMENTED **********************
 788:../../src/radio/rf231_soc/source/basic_rf.c ****  **********************************************************/
 789:../../src/radio/rf231_soc/source/basic_rf.c **** 
 790:../../src/radio/rf231_soc/source/basic_rf.c **** 
 791:../../src/radio/rf231_soc/source/basic_rf.c **** uint8_t rf_tx_tdma_packet(RF_TX_INFO *pRTI, uint16_t slot_start_time, uint16_t tx_guard_time) {
 2123               	.LM228:
 2124               	.LFBB37:
 2125               	/* prologue: function */
 2126               	/* frame size = 0 */
 2127               	/* stack size = 0 */
 2128               	.L__stack_usage = 0
 792:../../src/radio/rf231_soc/source/basic_rf.c **** //    return success;
 793:../../src/radio/rf231_soc/source/basic_rf.c **** 	return NRK_ERROR;
 794:../../src/radio/rf231_soc/source/basic_rf.c **** }
 2130               	.LM229:
 2131 0726 8FEF      		ldi r24,lo8(-1)
 2132 0728 0895      		ret
 2134               	.Lscope37:
 2136               		.stabd	78,0,0
 2138               	.global	rf_get_sem
 2140               	rf_get_sem:
 2141               		.stabd	46,0,0
 795:../../src/radio/rf231_soc/source/basic_rf.c **** 
 796:../../src/radio/rf231_soc/source/basic_rf.c **** 
 797:../../src/radio/rf231_soc/source/basic_rf.c **** nrk_sem_t* rf_get_sem()
 798:../../src/radio/rf231_soc/source/basic_rf.c **** {
 2143               	.LM230:
 2144               	.LFBB38:
 2145               	/* prologue: function */
 2146               	/* frame size = 0 */
 2147               	/* stack size = 0 */
 2148               	.L__stack_usage = 0
 799:../../src/radio/rf231_soc/source/basic_rf.c **** return radio_sem;
 800:../../src/radio/rf231_soc/source/basic_rf.c **** }
 2150               	.LM231:
 2151 072a 8091 0000 		lds r24,radio_sem
 2152 072e 9091 0000 		lds r25,radio_sem+1
 2153 0732 0895      		ret
 2155               	.Lscope38:
 2157               		.stabd	78,0,0
 2159               	.global	rf_flush_rx_fifo
 2161               	rf_flush_rx_fifo:
 2162               		.stabd	46,0,0
 801:../../src/radio/rf231_soc/source/basic_rf.c **** 
 802:../../src/radio/rf231_soc/source/basic_rf.c **** 
 803:../../src/radio/rf231_soc/source/basic_rf.c **** 
 804:../../src/radio/rf231_soc/source/basic_rf.c **** inline void rf_flush_rx_fifo()
 805:../../src/radio/rf231_soc/source/basic_rf.c **** {
 2164               	.LM232:
 2165               	.LFBB39:
 2166               	/* prologue: function */
 2167               	/* frame size = 0 */
 2168               	/* stack size = 0 */
 2169               	.L__stack_usage = 0
 2170 0734 0895      		ret
 2172               	.Lscope39:
 2174               		.stabd	78,0,0
 2176               	.global	rf_busy
 2178               	rf_busy:
 2179               		.stabd	46,0,0
 806:../../src/radio/rf231_soc/source/basic_rf.c **** }
 807:../../src/radio/rf231_soc/source/basic_rf.c **** 
 808:../../src/radio/rf231_soc/source/basic_rf.c **** uint8_t rf_busy()
 809:../../src/radio/rf231_soc/source/basic_rf.c **** {
 2181               	.LM233:
 2182               	.LFBB40:
 2183               	/* prologue: function */
 2184               	/* frame size = 0 */
 2185               	/* stack size = 0 */
 2186               	.L__stack_usage = 0
 810:../../src/radio/rf231_soc/source/basic_rf.c **** //return SFD_IS_1;
 811:../../src/radio/rf231_soc/source/basic_rf.c **** return 1;
 812:../../src/radio/rf231_soc/source/basic_rf.c **** }
 2188               	.LM234:
 2189 0736 81E0      		ldi r24,lo8(1)
 2190 0738 0895      		ret
 2192               	.Lscope40:
 2194               		.stabd	78,0,0
 2196               	.global	rf_rx_check_fifop
 2198               	rf_rx_check_fifop:
 2199               		.stabd	46,0,0
 813:../../src/radio/rf231_soc/source/basic_rf.c **** 
 814:../../src/radio/rf231_soc/source/basic_rf.c **** /* Implement */
 815:../../src/radio/rf231_soc/source/basic_rf.c **** uint8_t rf_rx_check_fifop()
 816:../../src/radio/rf231_soc/source/basic_rf.c **** {
 2201               	.LM235:
 2202               	.LFBB41:
 2203               	/* prologue: function */
 2204               	/* frame size = 0 */
 2205               	/* stack size = 0 */
 2206               	.L__stack_usage = 0
 817:../../src/radio/rf231_soc/source/basic_rf.c **** //return FIFOP_IS_1;
 818:../../src/radio/rf231_soc/source/basic_rf.c **** return 1;
 819:../../src/radio/rf231_soc/source/basic_rf.c **** }
 2208               	.LM236:
 2209 073a 81E0      		ldi r24,lo8(1)
 2210 073c 0895      		ret
 2212               	.Lscope41:
 2214               		.stabd	78,0,0
 2216               	.global	rf_rx_check_sfd
 2218               	rf_rx_check_sfd:
 2219               		.stabd	46,0,0
 820:../../src/radio/rf231_soc/source/basic_rf.c **** 
 821:../../src/radio/rf231_soc/source/basic_rf.c **** 
 822:../../src/radio/rf231_soc/source/basic_rf.c **** uint8_t rf_rx_check_sfd()
 823:../../src/radio/rf231_soc/source/basic_rf.c **** {
 2221               	.LM237:
 2222               	.LFBB42:
 2223               	/* prologue: function */
 2224               	/* frame size = 0 */
 2225               	/* stack size = 0 */
 2226               	.L__stack_usage = 0
 824:../../src/radio/rf231_soc/source/basic_rf.c **** //return SFD_IS_1;
 825:../../src/radio/rf231_soc/source/basic_rf.c **** return 1;
 826:../../src/radio/rf231_soc/source/basic_rf.c **** }
 2228               	.LM238:
 2229 073e 81E0      		ldi r24,lo8(1)
 2230 0740 0895      		ret
 2232               	.Lscope42:
 2234               		.stabd	78,0,0
 2236               	.global	rf_carrier_on
 2238               	rf_carrier_on:
 2239               		.stabd	46,0,0
 827:../../src/radio/rf231_soc/source/basic_rf.c **** 
 828:../../src/radio/rf231_soc/source/basic_rf.c **** 
 829:../../src/radio/rf231_soc/source/basic_rf.c **** 
 830:../../src/radio/rf231_soc/source/basic_rf.c **** /**********************************************************
 831:../../src/radio/rf231_soc/source/basic_rf.c ****  * start sending a carrier pulse
 832:../../src/radio/rf231_soc/source/basic_rf.c ****  * assumes wdrf_radio_test_mode() was called before doing this
 833:../../src/radio/rf231_soc/source/basic_rf.c ****  */
 834:../../src/radio/rf231_soc/source/basic_rf.c **** void rf_carrier_on()
 835:../../src/radio/rf231_soc/source/basic_rf.c **** {
 2241               	.LM239:
 2242               	.LFBB43:
 2243               	/* prologue: function */
 2244               	/* frame size = 0 */
 2245               	/* stack size = 0 */
 2246               	.L__stack_usage = 0
 2247 0742 0895      		ret
 2249               	.Lscope43:
 2251               		.stabd	78,0,0
 2253               	.global	rf_carrier_off
 2255               	rf_carrier_off:
 2256               		.stabd	46,0,0
 836:../../src/radio/rf231_soc/source/basic_rf.c **** /*
 837:../../src/radio/rf231_soc/source/basic_rf.c **** #ifdef RADIO_PRIORITY_CEILING
 838:../../src/radio/rf231_soc/source/basic_rf.c **** 	nrk_sem_pend(radio_sem);
 839:../../src/radio/rf231_soc/source/basic_rf.c **** #endif
 840:../../src/radio/rf231_soc/source/basic_rf.c ****      
 841:../../src/radio/rf231_soc/source/basic_rf.c **** #ifdef RADIO_PRIORITY_CEILING
 842:../../src/radio/rf231_soc/source/basic_rf.c **** 	nrk_sem_post(radio_sem);
 843:../../src/radio/rf231_soc/source/basic_rf.c **** #endif
 844:../../src/radio/rf231_soc/source/basic_rf.c **** */
 845:../../src/radio/rf231_soc/source/basic_rf.c **** }
 846:../../src/radio/rf231_soc/source/basic_rf.c **** 
 847:../../src/radio/rf231_soc/source/basic_rf.c **** 
 848:../../src/radio/rf231_soc/source/basic_rf.c **** 
 849:../../src/radio/rf231_soc/source/basic_rf.c **** /**********************************************************
 850:../../src/radio/rf231_soc/source/basic_rf.c ****  * stop sending a carrier pulse; set the radio to idle state
 851:../../src/radio/rf231_soc/source/basic_rf.c ****  */
 852:../../src/radio/rf231_soc/source/basic_rf.c **** void rf_carrier_off()
 853:../../src/radio/rf231_soc/source/basic_rf.c **** {
 2258               	.LM240:
 2259               	.LFBB44:
 2260               	/* prologue: function */
 2261               	/* frame size = 0 */
 2262               	/* stack size = 0 */
 2263               	.L__stack_usage = 0
 2264 0744 0895      		ret
 2266               	.Lscope44:
 2268               		.stabd	78,0,0
 2270               	.global	rf_test_mode
 2272               	rf_test_mode:
 2273               		.stabd	46,0,0
 854:../../src/radio/rf231_soc/source/basic_rf.c **** /*
 855:../../src/radio/rf231_soc/source/basic_rf.c **** #ifdef RADIO_PRIORITY_CEILING
 856:../../src/radio/rf231_soc/source/basic_rf.c **** 	nrk_sem_pend(radio_sem);
 857:../../src/radio/rf231_soc/source/basic_rf.c **** #endif
 858:../../src/radio/rf231_soc/source/basic_rf.c ****      
 859:../../src/radio/rf231_soc/source/basic_rf.c **** #ifdef RADIO_PRIORITY_CEILING
 860:../../src/radio/rf231_soc/source/basic_rf.c **** 	nrk_sem_post(radio_sem);
 861:../../src/radio/rf231_soc/source/basic_rf.c **** #endif
 862:../../src/radio/rf231_soc/source/basic_rf.c **** */
 863:../../src/radio/rf231_soc/source/basic_rf.c **** }
 864:../../src/radio/rf231_soc/source/basic_rf.c **** 
 865:../../src/radio/rf231_soc/source/basic_rf.c **** 
 866:../../src/radio/rf231_soc/source/basic_rf.c **** 
 867:../../src/radio/rf231_soc/source/basic_rf.c **** void rf_test_mode()
 868:../../src/radio/rf231_soc/source/basic_rf.c **** {
 2275               	.LM241:
 2276               	.LFBB45:
 2277               	/* prologue: function */
 2278               	/* frame size = 0 */
 2279               	/* stack size = 0 */
 2280               	.L__stack_usage = 0
 2281 0746 0895      		ret
 2283               	.Lscope45:
 2285               		.stabd	78,0,0
 2287               	.global	rf_data_mode
 2289               	rf_data_mode:
 2290               		.stabd	46,0,0
 869:../../src/radio/rf231_soc/source/basic_rf.c **** /*
 870:../../src/radio/rf231_soc/source/basic_rf.c **** #ifdef RADIO_PRIORITY_CEILING
 871:../../src/radio/rf231_soc/source/basic_rf.c **** 	nrk_sem_pend(radio_sem);
 872:../../src/radio/rf231_soc/source/basic_rf.c **** #endif
 873:../../src/radio/rf231_soc/source/basic_rf.c **** 
 874:../../src/radio/rf231_soc/source/basic_rf.c **** #ifdef RADIO_PRIORITY_CEILING
 875:../../src/radio/rf231_soc/source/basic_rf.c **** 	nrk_sem_post(radio_sem);
 876:../../src/radio/rf231_soc/source/basic_rf.c **** #endif
 877:../../src/radio/rf231_soc/source/basic_rf.c **** */
 878:../../src/radio/rf231_soc/source/basic_rf.c **** }
 879:../../src/radio/rf231_soc/source/basic_rf.c **** 
 880:../../src/radio/rf231_soc/source/basic_rf.c **** 
 881:../../src/radio/rf231_soc/source/basic_rf.c **** /**********************************************************
 882:../../src/radio/rf231_soc/source/basic_rf.c ****  * set the radio into "normal" mode (buffered TXFIFO) and go into (data) receive */
 883:../../src/radio/rf231_soc/source/basic_rf.c **** void rf_data_mode()
 884:../../src/radio/rf231_soc/source/basic_rf.c **** {
 2292               	.LM242:
 2293               	.LFBB46:
 2294               	/* prologue: function */
 2295               	/* frame size = 0 */
 2296               	/* stack size = 0 */
 2297               	.L__stack_usage = 0
 2298 0748 0895      		ret
 2300               	.Lscope46:
 2302               		.stabd	78,0,0
 2304               	.global	rf_rx_set_serial
 2306               	rf_rx_set_serial:
 2307               		.stabd	46,0,0
 885:../../src/radio/rf231_soc/source/basic_rf.c **** /*
 886:../../src/radio/rf231_soc/source/basic_rf.c **** #ifdef RADIO_PRIORITY_CEILING
 887:../../src/radio/rf231_soc/source/basic_rf.c **** 	nrk_sem_pend(radio_sem);
 888:../../src/radio/rf231_soc/source/basic_rf.c **** #endif
 889:../../src/radio/rf231_soc/source/basic_rf.c **** 
 890:../../src/radio/rf231_soc/source/basic_rf.c **** #ifdef RADIO_PRIORITY_CEILING
 891:../../src/radio/rf231_soc/source/basic_rf.c **** 	nrk_sem_post(radio_sem);
 892:../../src/radio/rf231_soc/source/basic_rf.c **** #endif
 893:../../src/radio/rf231_soc/source/basic_rf.c **** */
 894:../../src/radio/rf231_soc/source/basic_rf.c **** }
 895:../../src/radio/rf231_soc/source/basic_rf.c **** 
 896:../../src/radio/rf231_soc/source/basic_rf.c **** 
 897:../../src/radio/rf231_soc/source/basic_rf.c **** 
 898:../../src/radio/rf231_soc/source/basic_rf.c **** 
 899:../../src/radio/rf231_soc/source/basic_rf.c **** 
 900:../../src/radio/rf231_soc/source/basic_rf.c **** /**********************************************************
 901:../../src/radio/rf231_soc/source/basic_rf.c ****  * Set the radio into serial unbuffered RX mode
 902:../../src/radio/rf231_soc/source/basic_rf.c ****  * RX data is received through sampling the FIFO pin, timing is done using FIFOP 
 903:../../src/radio/rf231_soc/source/basic_rf.c ****  * Use rf_rx_on() to start rcv, then wait for SFD / FIFOP. Sample during each high edge of FIFOP
 904:../../src/radio/rf231_soc/source/basic_rf.c ****  * This can be undone by using rf_data_mode()
 905:../../src/radio/rf231_soc/source/basic_rf.c ****  */
 906:../../src/radio/rf231_soc/source/basic_rf.c **** void rf_rx_set_serial()
 907:../../src/radio/rf231_soc/source/basic_rf.c **** {
 2309               	.LM243:
 2310               	.LFBB47:
 2311               	/* prologue: function */
 2312               	/* frame size = 0 */
 2313               	/* stack size = 0 */
 2314               	.L__stack_usage = 0
 2315 074a 0895      		ret
 2317               	.Lscope47:
 2319               		.stabd	78,0,0
 2321               	.global	rf_tx_set_serial
 2323               	rf_tx_set_serial:
 2324               		.stabd	46,0,0
 908:../../src/radio/rf231_soc/source/basic_rf.c **** }
 909:../../src/radio/rf231_soc/source/basic_rf.c **** 
 910:../../src/radio/rf231_soc/source/basic_rf.c **** /**********************************************************
 911:../../src/radio/rf231_soc/source/basic_rf.c ****  * Put the radio in serial TX mode, where data is sampled from the FIFO
 912:../../src/radio/rf231_soc/source/basic_rf.c ****  * pin to send after SFD, and timing is done using FIFOP
 913:../../src/radio/rf231_soc/source/basic_rf.c ****  * use rf_carrier_on() to start, set FIFO to first bit, then wait for it
 914:../../src/radio/rf231_soc/source/basic_rf.c ****  * to go up and down, then set next bit etc.
 915:../../src/radio/rf231_soc/source/basic_rf.c ****  * NOTE: You must set the FIFO pin to output mode in order to do this!
 916:../../src/radio/rf231_soc/source/basic_rf.c ****  * This can be undone by calling rf_data_mode()
 917:../../src/radio/rf231_soc/source/basic_rf.c ****  */
 918:../../src/radio/rf231_soc/source/basic_rf.c **** void rf_tx_set_serial()
 919:../../src/radio/rf231_soc/source/basic_rf.c **** {
 2326               	.LM244:
 2327               	.LFBB48:
 2328               	/* prologue: function */
 2329               	/* frame size = 0 */
 2330               	/* stack size = 0 */
 2331               	.L__stack_usage = 0
 2332 074c 0895      		ret
 2334               	.Lscope48:
 2336               		.stabd	78,0,0
 2339               	.global	rf_set_preamble_length
 2341               	rf_set_preamble_length:
 2342               		.stabd	46,0,0
 920:../../src/radio/rf231_soc/source/basic_rf.c **** }
 921:../../src/radio/rf231_soc/source/basic_rf.c **** 
 922:../../src/radio/rf231_soc/source/basic_rf.c **** /**********************************************************
 923:../../src/radio/rf231_soc/source/basic_rf.c ****  * Specifies the number of symbols to be part of preamble
 924:../../src/radio/rf231_soc/source/basic_rf.c ****  * arg is equal to number of bytes - 1.
 925:../../src/radio/rf231_soc/source/basic_rf.c ****  * (3 bytes is 802.15.4 compliant, so length arg would be 2)
 926:../../src/radio/rf231_soc/source/basic_rf.c ****  * Length arg supports values 0 to 15. See the datasheet of course for more details
 927:../../src/radio/rf231_soc/source/basic_rf.c ****  */
 928:../../src/radio/rf231_soc/source/basic_rf.c **** void rf_set_preamble_length(uint8_t length)
 929:../../src/radio/rf231_soc/source/basic_rf.c **** {
 2344               	.LM245:
 2345               	.LFBB49:
 2346               	/* prologue: function */
 2347               	/* frame size = 0 */
 2348               	/* stack size = 0 */
 2349               	.L__stack_usage = 0
 2350 074e 0895      		ret
 2352               	.Lscope49:
 2354               		.stabd	78,0,0
 2357               	.global	rf_set_cca_mode
 2359               	rf_set_cca_mode:
 2360               		.stabd	46,0,0
 930:../../src/radio/rf231_soc/source/basic_rf.c **** }
 931:../../src/radio/rf231_soc/source/basic_rf.c **** 
 932:../../src/radio/rf231_soc/source/basic_rf.c **** 
 933:../../src/radio/rf231_soc/source/basic_rf.c **** void rf_set_cca_mode(uint8_t mode)
 934:../../src/radio/rf231_soc/source/basic_rf.c **** {
 2362               	.LM246:
 2363               	.LFBB50:
 2364               	/* prologue: function */
 2365               	/* frame size = 0 */
 2366               	/* stack size = 0 */
 2367               	.L__stack_usage = 0
 2368 0750 0895      		ret
 2370               	.Lscope50:
 2372               		.stabd	78,0,0
 2374               	.global	rf_cc2591_tx_on
 2376               	rf_cc2591_tx_on:
 2377               		.stabd	46,0,0
 935:../../src/radio/rf231_soc/source/basic_rf.c **** }
 936:../../src/radio/rf231_soc/source/basic_rf.c **** 
 937:../../src/radio/rf231_soc/source/basic_rf.c **** 
 938:../../src/radio/rf231_soc/source/basic_rf.c **** void rf_cc2591_tx_on()
 939:../../src/radio/rf231_soc/source/basic_rf.c **** {
 2379               	.LM247:
 2380               	.LFBB51:
 2381               	/* prologue: function */
 2382               	/* frame size = 0 */
 2383               	/* stack size = 0 */
 2384               	.L__stack_usage = 0
 940:../../src/radio/rf231_soc/source/basic_rf.c **** /*
 941:../../src/radio/rf231_soc/source/basic_rf.c **** 	DPDS1	|= 0x3; 
 942:../../src/radio/rf231_soc/source/basic_rf.c **** 	DDRG	|= 0x1;
 943:../../src/radio/rf231_soc/source/basic_rf.c **** 	PORTG	|= 0x1;
 944:../../src/radio/rf231_soc/source/basic_rf.c **** 	DDRE	|= 0xE0;
 945:../../src/radio/rf231_soc/source/basic_rf.c **** 	PORTE	|= 0xE0;
 946:../../src/radio/rf231_soc/source/basic_rf.c **** */
 947:../../src/radio/rf231_soc/source/basic_rf.c **** 	
 948:../../src/radio/rf231_soc/source/basic_rf.c **** 	DDRG	&= ~(0x1);  // Set RXTX as input
 2386               	.LM248:
 2387 0752 9898      		cbi 0x13,0
 949:../../src/radio/rf231_soc/source/basic_rf.c **** 	DDRE |= 0xE0;
 2389               	.LM249:
 2390 0754 8DB1      		in r24,0xd
 2391 0756 806E      		ori r24,lo8(-32)
 2392 0758 8DB9      		out 0xd,r24
 950:../../src/radio/rf231_soc/source/basic_rf.c **** 	// PAEN=1  EN=0  HGM=x RXTX=NC
 951:../../src/radio/rf231_soc/source/basic_rf.c **** 	// PAEN = PE.7
 952:../../src/radio/rf231_soc/source/basic_rf.c **** 	// EN = PE.6
 953:../../src/radio/rf231_soc/source/basic_rf.c **** 	// HGM= PE.5
 954:../../src/radio/rf231_soc/source/basic_rf.c **** 	PORTE |= 0xA0;
 2394               	.LM250:
 2395 075a 8EB1      		in r24,0xe
 2396 075c 806A      		ori r24,lo8(-96)
 2397 075e 8EB9      		out 0xe,r24
 2398 0760 0895      		ret
 2400               	.Lscope51:
 2402               		.stabd	78,0,0
 2404               	.global	rf_cc2591_rx_on
 2406               	rf_cc2591_rx_on:
 2407               		.stabd	46,0,0
 955:../../src/radio/rf231_soc/source/basic_rf.c **** 
 956:../../src/radio/rf231_soc/source/basic_rf.c **** 
 957:../../src/radio/rf231_soc/source/basic_rf.c **** }
 958:../../src/radio/rf231_soc/source/basic_rf.c **** 
 959:../../src/radio/rf231_soc/source/basic_rf.c **** void rf_cc2591_rx_on()
 960:../../src/radio/rf231_soc/source/basic_rf.c **** {
 2409               	.LM251:
 2410               	.LFBB52:
 2411               	/* prologue: function */
 2412               	/* frame size = 0 */
 2413               	/* stack size = 0 */
 2414               	.L__stack_usage = 0
 961:../../src/radio/rf231_soc/source/basic_rf.c **** /*
 962:../../src/radio/rf231_soc/source/basic_rf.c **** 	DPDS1	|= 0x3; 
 963:../../src/radio/rf231_soc/source/basic_rf.c **** 	DDRG	|= 0x1;
 964:../../src/radio/rf231_soc/source/basic_rf.c **** 	PORTG	&= ~(0x1);
 965:../../src/radio/rf231_soc/source/basic_rf.c **** 	DDRE	|= 0xE0;
 966:../../src/radio/rf231_soc/source/basic_rf.c **** 	PORTE	|= 0xE0;
 967:../../src/radio/rf231_soc/source/basic_rf.c **** */
 968:../../src/radio/rf231_soc/source/basic_rf.c **** 	DDRG	&= ~(0x1);  // Set RXTX as input
 2416               	.LM252:
 2417 0762 9898      		cbi 0x13,0
 969:../../src/radio/rf231_soc/source/basic_rf.c **** 	DDRE |= 0xE0;
 2419               	.LM253:
 2420 0764 8DB1      		in r24,0xd
 2421 0766 806E      		ori r24,lo8(-32)
 2422 0768 8DB9      		out 0xd,r24
 970:../../src/radio/rf231_soc/source/basic_rf.c **** 	// PAEN=0  EN=1  HGM=1 RXTX=NC
 971:../../src/radio/rf231_soc/source/basic_rf.c **** 	// PAEN = PE.7
 972:../../src/radio/rf231_soc/source/basic_rf.c **** 	// EN = PE.6
 973:../../src/radio/rf231_soc/source/basic_rf.c **** 	// HGM= PE.5
 974:../../src/radio/rf231_soc/source/basic_rf.c **** 	PORTE |= 0x60;
 2424               	.LM254:
 2425 076a 8EB1      		in r24,0xe
 2426 076c 8066      		ori r24,lo8(96)
 2427 076e 8EB9      		out 0xe,r24
 2428 0770 0895      		ret
 2430               	.Lscope52:
 2432               		.stabd	78,0,0
 2433               		.section	.rodata.str1.1,"aMS",@progbits,1
 2434               	.LC0:
 2435 0000 7266 5F72 		.string	"rf_rx_packet_nonblock failed]\r"
 2435      785F 7061 
 2435      636B 6574 
 2435      5F6E 6F6E 
 2435      626C 6F63 
 2436               	.LC1:
 2437 001f 5061 636B 		.string	"Packet is done bouncing around!\r\n"
 2437      6574 2069 
 2437      7320 646F 
 2437      6E65 2062 
 2437      6F75 6E63 
 2438               	.LC2:
 2439 0041 5345 513A 		.string	"SEQ:%4u\tTTL:%2d\tRSSI:%4d\tPayload: [%s]\r\n"
 2439      2534 7509 
 2439      5454 4C3A 
 2439      2532 6409 
 2439      5253 5349 
 2440               		.text
 2442               	.global	rf_glossy_interrupt
 2444               	rf_glossy_interrupt:
 2445               		.stabd	46,0,0
 975:../../src/radio/rf231_soc/source/basic_rf.c **** 
 976:../../src/radio/rf231_soc/source/basic_rf.c **** }
 977:../../src/radio/rf231_soc/source/basic_rf.c **** 
 978:../../src/radio/rf231_soc/source/basic_rf.c **** 
 979:../../src/radio/rf231_soc/source/basic_rf.c **** #ifdef GLOSSY_TESTING
 980:../../src/radio/rf231_soc/source/basic_rf.c **** uint8_t packet_flags[128];
 981:../../src/radio/rf231_soc/source/basic_rf.c **** uint8_t delay_flags[26];
 982:../../src/radio/rf231_soc/source/basic_rf.c **** uint16_t curr_count;
 983:../../src/radio/rf231_soc/source/basic_rf.c **** 
 984:../../src/radio/rf231_soc/source/basic_rf.c **** int calculate_checksum(uint8_t * buf) {
 985:../../src/radio/rf231_soc/source/basic_rf.c **** 	uint8_t i, checksum = 0;
 986:../../src/radio/rf231_soc/source/basic_rf.c **** 	for (i = 1; i < 99; i++) checksum ^= buf[i];
 987:../../src/radio/rf231_soc/source/basic_rf.c **** 	return checksum == buf[99];
 988:../../src/radio/rf231_soc/source/basic_rf.c **** }
 989:../../src/radio/rf231_soc/source/basic_rf.c **** 
 990:../../src/radio/rf231_soc/source/basic_rf.c **** uint16_t calculate_reception_rate()
 991:../../src/radio/rf231_soc/source/basic_rf.c **** {
 992:../../src/radio/rf231_soc/source/basic_rf.c **** 	uint8_t i, j;
 993:../../src/radio/rf231_soc/source/basic_rf.c **** 	uint16_t packets_received = 0;
 994:../../src/radio/rf231_soc/source/basic_rf.c **** 	for (i = 0; i < 128; i++) {
 995:../../src/radio/rf231_soc/source/basic_rf.c **** 		for (j = 0; j < 8; j++) {
 996:../../src/radio/rf231_soc/source/basic_rf.c **** 			packets_received += (packet_flags[i] >> j) & 1;
 997:../../src/radio/rf231_soc/source/basic_rf.c **** 		}
 998:../../src/radio/rf231_soc/source/basic_rf.c **** 	}
 999:../../src/radio/rf231_soc/source/basic_rf.c **** 	return packets_received;
1000:../../src/radio/rf231_soc/source/basic_rf.c **** }
1001:../../src/radio/rf231_soc/source/basic_rf.c **** 
1002:../../src/radio/rf231_soc/source/basic_rf.c **** void mark_delay(uint8_t delay)
1003:../../src/radio/rf231_soc/source/basic_rf.c **** {
1004:../../src/radio/rf231_soc/source/basic_rf.c **** 	delay_flags[delay/8] |= 1 << (delay % 8);
1005:../../src/radio/rf231_soc/source/basic_rf.c **** }
1006:../../src/radio/rf231_soc/source/basic_rf.c **** 
1007:../../src/radio/rf231_soc/source/basic_rf.c **** uint8_t check_delay(uint8_t delay)
1008:../../src/radio/rf231_soc/source/basic_rf.c **** {
1009:../../src/radio/rf231_soc/source/basic_rf.c **** 	return ((delay_flags[delay/8]) >> (delay % 8)) & 1;
1010:../../src/radio/rf231_soc/source/basic_rf.c **** }
1011:../../src/radio/rf231_soc/source/basic_rf.c **** 
1012:../../src/radio/rf231_soc/source/basic_rf.c **** void mark_recieved(uint16_t packet_id, uint8_t delay)
1013:../../src/radio/rf231_soc/source/basic_rf.c **** {
1014:../../src/radio/rf231_soc/source/basic_rf.c **** 	if (check_delay(delay)) return;
1015:../../src/radio/rf231_soc/source/basic_rf.c **** 	if (packet_id > 999) {
1016:../../src/radio/rf231_soc/source/basic_rf.c **** 		mark_delay(delay);
1017:../../src/radio/rf231_soc/source/basic_rf.c **** 		uint16_t reception_rate = calculate_reception_rate();
1018:../../src/radio/rf231_soc/source/basic_rf.c **** 		printf("\n\n%4d\t%4d\r\n\n\n", delay, reception_rate);
1019:../../src/radio/rf231_soc/source/basic_rf.c **** 		clear_packet_flags();
1020:../../src/radio/rf231_soc/source/basic_rf.c **** 	} else {
1021:../../src/radio/rf231_soc/source/basic_rf.c **** 		packet_flags[packet_id/8] |= 1 << (packet_id % 8);
1022:../../src/radio/rf231_soc/source/basic_rf.c **** 	}
1023:../../src/radio/rf231_soc/source/basic_rf.c **** }
1024:../../src/radio/rf231_soc/source/basic_rf.c **** void clear_packet_flags()
1025:../../src/radio/rf231_soc/source/basic_rf.c **** {
1026:../../src/radio/rf231_soc/source/basic_rf.c **** 	int i;
1027:../../src/radio/rf231_soc/source/basic_rf.c **** 	for (i = 0; i < 128; i++) {
1028:../../src/radio/rf231_soc/source/basic_rf.c **** 		packet_flags[i] = 0;
1029:../../src/radio/rf231_soc/source/basic_rf.c **** 	}
1030:../../src/radio/rf231_soc/source/basic_rf.c **** 	curr_count = 0;
1031:../../src/radio/rf231_soc/source/basic_rf.c **** }
1032:../../src/radio/rf231_soc/source/basic_rf.c **** #endif
1033:../../src/radio/rf231_soc/source/basic_rf.c **** 
1034:../../src/radio/rf231_soc/source/basic_rf.c **** void rf_glossy_interrupt()
1035:../../src/radio/rf231_soc/source/basic_rf.c **** {
 2447               	.LM255:
 2448               	.LFBB53:
 2449 0772 CF92      		push r12
 2450 0774 DF92      		push r13
 2451 0776 EF92      		push r14
 2452 0778 FF92      		push r15
 2453 077a 0F93      		push r16
 2454 077c 1F93      		push r17
 2455 077e CF93      		push r28
 2456 0780 DF93      		push r29
 2457 0782 CDB7      		in r28,__SP_L__
 2458 0784 DEB7      		in r29,__SP_H__
 2459 0786 2797      		sbiw r28,7
 2460 0788 0FB6      		in __tmp_reg__,__SREG__
 2461 078a F894      		cli
 2462 078c DEBF      		out __SP_H__,r29
 2463 078e 0FBE      		out __SREG__,__tmp_reg__
 2464 0790 CDBF      		out __SP_L__,r28
 2465               	/* prologue: function */
 2466               	/* frame size = 7 */
 2467               	/* stack size = 15 */
 2468               	.L__stack_usage = 15
1036:../../src/radio/rf231_soc/source/basic_rf.c **** 	nrk_int_disable();
 2470               	.LM256:
 2471 0792 0E94 0000 		call nrk_int_disable
1037:../../src/radio/rf231_soc/source/basic_rf.c **** 
1038:../../src/radio/rf231_soc/source/basic_rf.c **** 	RF_RX_INFO rfRxInfo = *(rfSettings.pRxInfo);
 2473               	.LM257:
 2474 0796 E091 0000 		lds r30,rfSettings
 2475 079a F091 0000 		lds r31,rfSettings+1
 2476 079e C080      		ld r12,Z
 2477 07a0 D380      		ldd r13,Z+3
 2478 07a2 E580      		ldd r14,Z+5
 2479 07a4 F680      		ldd r15,Z+6
 2480 07a6 0085      		ldd r16,Z+8
1039:../../src/radio/rf231_soc/source/basic_rf.c **** 	RF_TX_INFO rfTxInfo;
1040:../../src/radio/rf231_soc/source/basic_rf.c **** 
1041:../../src/radio/rf231_soc/source/basic_rf.c **** 	/* Grab packet */
1042:../../src/radio/rf231_soc/source/basic_rf.c **** 	int err = rf_rx_packet_nonblock();
 2482               	.LM258:
 2483 07a8 0E94 0000 		call rf_rx_packet_nonblock
1043:../../src/radio/rf231_soc/source/basic_rf.c **** 	if (err < 1) {
 2485               	.LM259:
 2486 07ac 1816      		cp __zero_reg__,r24
 2487 07ae 04F0      		brlt .L169
1044:../../src/radio/rf231_soc/source/basic_rf.c **** 		printf("rf_rx_packet_nonblock failed]\r\n");
 2489               	.LM260:
 2490 07b0 80E0      		ldi r24,lo8(.LC0)
 2491 07b2 90E0      		ldi r25,hi8(.LC0)
 2492 07b4 00C0      		rjmp .L173
 2493               	.L169:
1045:../../src/radio/rf231_soc/source/basic_rf.c **** 		nrk_int_enable();
1046:../../src/radio/rf231_soc/source/basic_rf.c **** 		return;
1047:../../src/radio/rf231_soc/source/basic_rf.c **** 	}
1048:../../src/radio/rf231_soc/source/basic_rf.c **** 
1049:../../src/radio/rf231_soc/source/basic_rf.c **** 	/* TTL should be the first byte of the payload */
1050:../../src/radio/rf231_soc/source/basic_rf.c **** 	uint8_t ttl = rfRxInfo.pPayload[0];
 2495               	.LM261:
 2496 07b6 F701      		movw r30,r14
 2497 07b8 1081      		ld r17,Z
1051:../../src/radio/rf231_soc/source/basic_rf.c **** 	if (ttl == 0) {
 2499               	.LM262:
 2500 07ba 1111      		cpse r17,__zero_reg__
 2501 07bc 00C0      		rjmp .L171
1052:../../src/radio/rf231_soc/source/basic_rf.c **** #ifndef GLOSSY_TESTING
1053:../../src/radio/rf231_soc/source/basic_rf.c **** 		printf("Packet is done bouncing around!\r\n\n");
 2503               	.LM263:
 2504 07be 80E0      		ldi r24,lo8(.LC1)
 2505 07c0 90E0      		ldi r25,hi8(.LC1)
 2506               	.L173:
 2507 07c2 0E94 0000 		call puts
1054:../../src/radio/rf231_soc/source/basic_rf.c **** #endif
1055:../../src/radio/rf231_soc/source/basic_rf.c **** 		nrk_int_enable();
 2509               	.LM264:
 2510 07c6 0E94 0000 		call nrk_int_enable
1056:../../src/radio/rf231_soc/source/basic_rf.c **** 		return;
 2512               	.LM265:
 2513 07ca 00C0      		rjmp .L168
 2514               	.L171:
1057:../../src/radio/rf231_soc/source/basic_rf.c **** 	} else if (ttl == 5) {
 2516               	.LM266:
 2517 07cc 1530      		cpi r17,lo8(5)
 2518 07ce 01F4      		brne .L172
1058:../../src/radio/rf231_soc/source/basic_rf.c **** #ifndef GLOSSY_TESTING
1059:../../src/radio/rf231_soc/source/basic_rf.c **** 		printf("\n");
 2520               	.LM267:
 2521 07d0 8AE0      		ldi r24,lo8(10)
 2522 07d2 90E0      		ldi r25,0
 2523 07d4 0E94 0000 		call putchar
 2524               	.L172:
1060:../../src/radio/rf231_soc/source/basic_rf.c **** #endif
1061:../../src/radio/rf231_soc/source/basic_rf.c **** 	}
1062:../../src/radio/rf231_soc/source/basic_rf.c **** 
1063:../../src/radio/rf231_soc/source/basic_rf.c **** 	/* Print packet information */
1064:../../src/radio/rf231_soc/source/basic_rf.c **** #ifndef GLOSSY_TESTING
1065:../../src/radio/rf231_soc/source/basic_rf.c **** 	int8_t rssi = rfRxInfo.rssi;
1066:../../src/radio/rf231_soc/source/basic_rf.c **** 	uint8_t snum = rfRxInfo.seqNumber;
1067:../../src/radio/rf231_soc/source/basic_rf.c **** 	printf("SEQ:%4u\tTTL:%2d\tRSSI:%4d\tPayload: [%s]\r\n", 
 2526               	.LM268:
 2527 07d8 C701      		movw r24,r14
 2528 07da 0196      		adiw r24,1
 2529 07dc 9F93      		push r25
 2530 07de 8F93      		push r24
 2531 07e0 802F      		mov r24,r16
 2532 07e2 9927      		clr r25
 2533 07e4 87FD      		sbrc r24,7
 2534 07e6 9095      		com r25
 2535 07e8 9F93      		push r25
 2536 07ea 0F93      		push r16
 2537 07ec 1F92      		push __zero_reg__
 2538 07ee 1F93      		push r17
 2539 07f0 1F92      		push __zero_reg__
 2540 07f2 CF92      		push r12
 2541 07f4 80E0      		ldi r24,lo8(.LC2)
 2542 07f6 90E0      		ldi r25,hi8(.LC2)
 2543 07f8 9F93      		push r25
 2544 07fa 8F93      		push r24
 2545 07fc 0E94 0000 		call printf
1068:../../src/radio/rf231_soc/source/basic_rf.c **** 					snum, ttl, rssi, rfRxInfo.pPayload + 1);
1069:../../src/radio/rf231_soc/source/basic_rf.c **** #endif
1070:../../src/radio/rf231_soc/source/basic_rf.c **** 	/* Copy pointer to payload and length */
1071:../../src/radio/rf231_soc/source/basic_rf.c **** 	rfTxInfo.pPayload = rfRxInfo.pPayload;
 2547               	.LM269:
 2548 0800 FD82      		std Y+5,r15
 2549 0802 EC82      		std Y+4,r14
1072:../../src/radio/rf231_soc/source/basic_rf.c **** 	rfTxInfo.pPayload[0] = ttl - 1;
 2551               	.LM270:
 2552 0804 1150      		subi r17,lo8(-(-1))
 2553 0806 F701      		movw r30,r14
 2554 0808 1083      		st Z,r17
1073:../../src/radio/rf231_soc/source/basic_rf.c **** 	rfTxInfo.length = rfRxInfo.length;
 2556               	.LM271:
 2557 080a DB82      		std Y+3,r13
1074:../../src/radio/rf231_soc/source/basic_rf.c **** 	rfTxInfo.cca = 0;
 2559               	.LM272:
 2560 080c 1E82      		std Y+6,__zero_reg__
1075:../../src/radio/rf231_soc/source/basic_rf.c **** 	rfTxInfo.ackRequest = 0;
 2562               	.LM273:
 2563 080e 1F82      		std Y+7,__zero_reg__
1076:../../src/radio/rf231_soc/source/basic_rf.c **** 	rfTxInfo.destAddr = 0xFFFF;
 2565               	.LM274:
 2566 0810 8FEF      		ldi r24,lo8(-1)
 2567 0812 9FEF      		ldi r25,lo8(-1)
 2568 0814 9A83      		std Y+2,r25
 2569 0816 8983      		std Y+1,r24
1077:../../src/radio/rf231_soc/source/basic_rf.c **** 
1078:../../src/radio/rf231_soc/source/basic_rf.c **** 	/* Code for testing glossy reception rate*/
1079:../../src/radio/rf231_soc/source/basic_rf.c **** #ifdef GLOSSY_TESTING
1080:../../src/radio/rf231_soc/source/basic_rf.c **** 	uint16_t send_num = (((uint16_t)rfRxInfo.pPayload[1]) << 8) + rfRxInfo.pPayload[2];
1081:../../src/radio/rf231_soc/source/basic_rf.c **** 	uint8_t us_jam = rfRxInfo.pPayload[3];
1082:../../src/radio/rf231_soc/source/basic_rf.c **** 	if (calculate_checksum(rfRxInfo.pPayload)) {
1083:../../src/radio/rf231_soc/source/basic_rf.c **** 		mark_recieved(send_num, us_jam);
1084:../../src/radio/rf231_soc/source/basic_rf.c **** 		if (send_num < 1000) {
1085:../../src/radio/rf231_soc/source/basic_rf.c **** 			curr_count++;
1086:../../src/radio/rf231_soc/source/basic_rf.c **** 			printf("SEND NUM   %04d   %04d\r", send_num, curr_count);
1087:../../src/radio/rf231_soc/source/basic_rf.c **** 			fflush(stdout);
1088:../../src/radio/rf231_soc/source/basic_rf.c **** 			//nrk_spin_wait_us(((uint16_t)us_jam) * 10);
1089:../../src/radio/rf231_soc/source/basic_rf.c **** 		}
1090:../../src/radio/rf231_soc/source/basic_rf.c **** 		nrk_int_enable();
1091:../../src/radio/rf231_soc/source/basic_rf.c **** 		rf_tx_packet(&rfTxInfo);
1092:../../src/radio/rf231_soc/source/basic_rf.c **** 	} else {
1093:../../src/radio/rf231_soc/source/basic_rf.c **** 		nrk_int_enable();
1094:../../src/radio/rf231_soc/source/basic_rf.c **** 	}
1095:../../src/radio/rf231_soc/source/basic_rf.c **** #else
1096:../../src/radio/rf231_soc/source/basic_rf.c **** 	nrk_int_enable();
 2571               	.LM275:
 2572 0818 0E94 0000 		call nrk_int_enable
1097:../../src/radio/rf231_soc/source/basic_rf.c **** 	rf_tx_packet(&rfTxInfo);
 2574               	.LM276:
 2575 081c CE01      		movw r24,r28
 2576 081e 0196      		adiw r24,1
 2577 0820 0E94 0000 		call rf_tx_packet
1098:../../src/radio/rf231_soc/source/basic_rf.c **** #endif
1099:../../src/radio/rf231_soc/source/basic_rf.c **** 	return;
 2579               	.LM277:
 2580 0824 0FB6      		in __tmp_reg__,__SREG__
 2581 0826 F894      		cli
 2582 0828 DEBF      		out __SP_H__,r29
 2583 082a 0FBE      		out __SREG__,__tmp_reg__
 2584 082c CDBF      		out __SP_L__,r28
 2585               	.L168:
 2586               	/* epilogue start */
1100:../../src/radio/rf231_soc/source/basic_rf.c **** }
 2588               	.LM278:
 2589 082e 2796      		adiw r28,7
 2590 0830 0FB6      		in __tmp_reg__,__SREG__
 2591 0832 F894      		cli
 2592 0834 DEBF      		out __SP_H__,r29
 2593 0836 0FBE      		out __SREG__,__tmp_reg__
 2594 0838 CDBF      		out __SP_L__,r28
 2595 083a DF91      		pop r29
 2596 083c CF91      		pop r28
 2597 083e 1F91      		pop r17
 2598 0840 0F91      		pop r16
 2599 0842 FF90      		pop r15
 2600 0844 EF90      		pop r14
 2601 0846 DF90      		pop r13
 2602 0848 CF90      		pop r12
 2603 084a 0895      		ret
 2609               	.Lscope53:
 2611               		.stabd	78,0,0
 2612               		.section	.rodata.str1.1
 2613               	.LC3:
 2614 006a 5258 2065 		.string	"RX end failed checksum!\r"
 2614      6E64 2066 
 2614      6169 6C65 
 2614      6420 6368 
 2614      6563 6B73 
 2615               		.text
 2617               	.global	__vector_60
 2619               	__vector_60:
 2620               		.stabd	46,0,0
 651:../../src/radio/rf231_soc/source/basic_rf.c **** 	uint8_t i, *byte_ptr = &TRXFBST;
 2622               	.LM279:
 2623               	.LFBB54:
 2624 084c 1F92      		push r1
 2625 084e 0F92      		push r0
 2626 0850 0FB6      		in r0,__SREG__
 2627 0852 0F92      		push r0
 2628 0854 1124      		clr __zero_reg__
 2629 0856 0BB6      		in r0,__RAMPZ__
 2630 0858 0F92      		push r0
 2631 085a 2F93      		push r18
 2632 085c 3F93      		push r19
 2633 085e 4F93      		push r20
 2634 0860 5F93      		push r21
 2635 0862 6F93      		push r22
 2636 0864 7F93      		push r23
 2637 0866 8F93      		push r24
 2638 0868 9F93      		push r25
 2639 086a AF93      		push r26
 2640 086c BF93      		push r27
 2641 086e EF93      		push r30
 2642 0870 FF93      		push r31
 2643               	/* prologue: Signal */
 2644               	/* frame size = 0 */
 2645               	/* stack size = 16 */
 2646               	.L__stack_usage = 16
 656:../../src/radio/rf231_soc/source/basic_rf.c **** 		vprintf("0x%02x ", byte_ptr[i]);
 2648               	.LM280:
 2649 0872 80E0      		ldi r24,0
 2650               	.L175:
 656:../../src/radio/rf231_soc/source/basic_rf.c **** 		vprintf("0x%02x ", byte_ptr[i]);
 2652               	.LM281:
 2653 0874 9091 7B01 		lds r25,379
 2654 0878 8917      		cp r24,r25
 2655 087a 00F4      		brsh .L190
 656:../../src/radio/rf231_soc/source/basic_rf.c **** 		vprintf("0x%02x ", byte_ptr[i]);
 2657               	.LM282:
 2658 087c 8F5F      		subi r24,lo8(-(1))
 2659 087e 00C0      		rjmp .L175
 2660               	.L190:
 663:../../src/radio/rf231_soc/source/basic_rf.c ****       rx_ready = 1;
 2662               	.LM283:
 2663 0880 8091 4601 		lds r24,326
 2664 0884 87FF      		sbrs r24,7
 2665 0886 00C0      		rjmp .L177
 664:../../src/radio/rf231_soc/source/basic_rf.c ****    } else {
 2667               	.LM284:
 2668 0888 81E0      		ldi r24,lo8(1)
 2669 088a 8093 0000 		sts rx_ready,r24
 2670 088e 00C0      		rjmp .L178
 2671               	.L177:
 666:../../src/radio/rf231_soc/source/basic_rf.c ****    }
 2673               	.LM285:
 2674 0890 80E0      		ldi r24,lo8(.LC3)
 2675 0892 90E0      		ldi r25,hi8(.LC3)
 2676 0894 0E94 0000 		call puts
 2677               	.L178:
 668:../../src/radio/rf231_soc/source/basic_rf.c **** 	
 2679               	.LM286:
 2680 0898 88E0      		ldi r24,lo8(8)
 2681 089a 8093 4F01 		sts 335,r24
 670:../../src/radio/rf231_soc/source/basic_rf.c **** 		if (use_glossy) rf_glossy_interrupt();
 2683               	.LM287:
 2684 089e 8091 4601 		lds r24,326
 2685 08a2 87FF      		sbrs r24,7
 2686 08a4 00C0      		rjmp .L179
 671:../../src/radio/rf231_soc/source/basic_rf.c **** 	}
 2688               	.LM288:
 2689 08a6 8091 0000 		lds r24,use_glossy
 2690 08aa 8111      		cpse r24,__zero_reg__
 671:../../src/radio/rf231_soc/source/basic_rf.c **** 	}
 2692               	.LM289:
 2693 08ac 0E94 0000 		call rf_glossy_interrupt
 2694               	.L179:
 674:../../src/radio/rf231_soc/source/basic_rf.c **** 		rx_end_func();
 2696               	.LM290:
 2697 08b0 E091 0000 		lds r30,rx_end_func
 2698 08b4 F091 0000 		lds r31,rx_end_func+1
 2699 08b8 3097      		sbiw r30,0
 2700 08ba 01F0      		breq .L174
 675:../../src/radio/rf231_soc/source/basic_rf.c **** 
 2702               	.LM291:
 2703 08bc 0995      		icall
 2704               	.L174:
 2705               	/* epilogue start */
 678:../../src/radio/rf231_soc/source/basic_rf.c **** 
 2707               	.LM292:
 2708 08be FF91      		pop r31
 2709 08c0 EF91      		pop r30
 2710 08c2 BF91      		pop r27
 2711 08c4 AF91      		pop r26
 2712 08c6 9F91      		pop r25
 2713 08c8 8F91      		pop r24
 2714 08ca 7F91      		pop r23
 2715 08cc 6F91      		pop r22
 2716 08ce 5F91      		pop r21
 2717 08d0 4F91      		pop r20
 2718 08d2 3F91      		pop r19
 2719 08d4 2F91      		pop r18
 2720 08d6 0F90      		pop r0
 2721 08d8 0BBE      		out __RAMPZ__,r0
 2722 08da 0F90      		pop r0
 2723 08dc 0FBE      		out __SREG__,r0
 2724 08de 0F90      		pop r0
 2725 08e0 1F90      		pop r1
 2726 08e2 1895      		reti
 2731               	.Lscope54:
 2733               		.stabd	78,0,0
 2736               	.global	aes_setkey
 2738               	aes_setkey:
 2739               		.stabd	46,0,0
1101:../../src/radio/rf231_soc/source/basic_rf.c **** 
1102:../../src/radio/rf231_soc/source/basic_rf.c **** 
1103:../../src/radio/rf231_soc/source/basic_rf.c **** /* AES encryption and decryption */
1104:../../src/radio/rf231_soc/source/basic_rf.c **** 
1105:../../src/radio/rf231_soc/source/basic_rf.c **** void aes_setkey(uint8_t *key)
1106:../../src/radio/rf231_soc/source/basic_rf.c **** {
 2741               	.LM293:
 2742               	.LFBB55:
 2743               	/* prologue: function */
 2744               	/* frame size = 0 */
 2745               	/* stack size = 0 */
 2746               	.L__stack_usage = 0
 2747 08e4 A0E0      		ldi r26,lo8(ekey)
 2748 08e6 B0E0      		ldi r27,hi8(ekey)
 2749 08e8 FC01      		movw r30,r24
 2750 08ea 4096      		adiw r24,16
 2751               	.L192:
1107:../../src/radio/rf231_soc/source/basic_rf.c ****    uint8_t i;
1108:../../src/radio/rf231_soc/source/basic_rf.c **** 
1109:../../src/radio/rf231_soc/source/basic_rf.c ****    for(i=0; i<16; i++){
1110:../../src/radio/rf231_soc/source/basic_rf.c ****       ekey[i] = key[i];
 2753               	.LM294:
 2754 08ec 2081      		ld r18,Z
 2755 08ee 2D93      		st X+,r18
1111:../../src/radio/rf231_soc/source/basic_rf.c ****       AES_KEY = key[i];
 2757               	.LM295:
 2758 08f0 2191      		ld r18,Z+
 2759 08f2 2093 3F01 		sts 319,r18
1109:../../src/radio/rf231_soc/source/basic_rf.c ****       ekey[i] = key[i];
 2761               	.LM296:
 2762 08f6 E817      		cp r30,r24
 2763 08f8 F907      		cpc r31,r25
 2764 08fa 01F4      		brne .L192
 2765 08fc 80E1      		ldi r24,lo8(16)
 2766               	.L193:
1112:../../src/radio/rf231_soc/source/basic_rf.c ****    }
1113:../../src/radio/rf231_soc/source/basic_rf.c ****    for(i=0; i<16; i++){
1114:../../src/radio/rf231_soc/source/basic_rf.c ****       AES_STATE = 0x00;
 2768               	.LM297:
 2769 08fe 1092 3E01 		sts 318,__zero_reg__
 2770 0902 8150      		subi r24,lo8(-(-1))
1113:../../src/radio/rf231_soc/source/basic_rf.c ****       AES_STATE = 0x00;
 2772               	.LM298:
 2773 0904 01F4      		brne .L193
1115:../../src/radio/rf231_soc/source/basic_rf.c ****    }
1116:../../src/radio/rf231_soc/source/basic_rf.c ****    AES_CTRL = (1 << AES_REQUEST);
 2775               	.LM299:
 2776 0906 80E8      		ldi r24,lo8(-128)
 2777 0908 8093 3C01 		sts 316,r24
 2778               	.L194:
1117:../../src/radio/rf231_soc/source/basic_rf.c **** 
1118:../../src/radio/rf231_soc/source/basic_rf.c ****    while(!(AES_STATUS & (1 << AES_DONE))){
 2780               	.LM300:
 2781 090c 8091 3D01 		lds r24,317
 2782 0910 80FF      		sbrs r24,0
 2783 0912 00C0      		rjmp .L194
 2784 0914 E0E0      		ldi r30,lo8(dkey)
 2785 0916 F0E0      		ldi r31,hi8(dkey)
 2786 0918 80E1      		ldi r24,lo8(16)
 2787 091a 8E0F      		add r24,r30
 2788               	.L195:
1119:../../src/radio/rf231_soc/source/basic_rf.c ****       continue;
1120:../../src/radio/rf231_soc/source/basic_rf.c ****    }
1121:../../src/radio/rf231_soc/source/basic_rf.c ****    for(i=0; i<16; i++){
1122:../../src/radio/rf231_soc/source/basic_rf.c ****       dkey[i] = AES_KEY;
 2790               	.LM301:
 2791 091c 9091 3F01 		lds r25,319
 2792 0920 9193      		st Z+,r25
1121:../../src/radio/rf231_soc/source/basic_rf.c ****       dkey[i] = AES_KEY;
 2794               	.LM302:
 2795 0922 8E13      		cpse r24,r30
 2796 0924 00C0      		rjmp .L195
 2797               	/* epilogue start */
1123:../../src/radio/rf231_soc/source/basic_rf.c ****    }
1124:../../src/radio/rf231_soc/source/basic_rf.c **** }
 2799               	.LM303:
 2800 0926 0895      		ret
 2802               	.Lscope55:
 2804               		.stabd	78,0,0
 2808               	.global	aes_encrypt
 2810               	aes_encrypt:
 2811               		.stabd	46,0,0
1125:../../src/radio/rf231_soc/source/basic_rf.c **** 
1126:../../src/radio/rf231_soc/source/basic_rf.c **** 
1127:../../src/radio/rf231_soc/source/basic_rf.c **** uint8_t aes_encrypt(uint8_t *data, uint8_t len)
1128:../../src/radio/rf231_soc/source/basic_rf.c **** {
 2813               	.LM304:
 2814               	.LFBB56:
 2815 0928 CF93      		push r28
 2816 092a DF93      		push r29
 2817               	/* prologue: function */
 2818               	/* frame size = 0 */
 2819               	/* stack size = 2 */
 2820               	.L__stack_usage = 2
 2821 092c DC01      		movw r26,r24
1129:../../src/radio/rf231_soc/source/basic_rf.c ****    uint8_t i, j;
1130:../../src/radio/rf231_soc/source/basic_rf.c **** 
1131:../../src/radio/rf231_soc/source/basic_rf.c ****    if(len==0 || len%16!=0)
 2823               	.LM305:
 2824 092e 6623      		tst r22
 2825 0930 01F4      		brne .+2
 2826 0932 00C0      		rjmp .L212
 2828               	.LM306:
 2829 0934 862F      		mov r24,r22
 2830 0936 8F70      		andi r24,lo8(15)
 2831 0938 01F0      		breq .+2
 2832 093a 00C0      		rjmp .L212
 2834               	.LM307:
 2835 093c E0E0      		ldi r30,lo8(ekey)
 2836 093e F0E0      		ldi r31,hi8(ekey)
 2837 0940 90E1      		ldi r25,lo8(16)
 2838 0942 9E0F      		add r25,r30
 2839               	.L203:
1132:../../src/radio/rf231_soc/source/basic_rf.c ****       return 1;
1133:../../src/radio/rf231_soc/source/basic_rf.c **** 
1134:../../src/radio/rf231_soc/source/basic_rf.c ****    for(i=0; i<16; i++)
1135:../../src/radio/rf231_soc/source/basic_rf.c ****       AES_KEY = ekey[i];
 2841               	.LM308:
 2842 0944 2191      		ld r18,Z+
 2843 0946 2093 3F01 		sts 319,r18
1134:../../src/radio/rf231_soc/source/basic_rf.c ****       AES_KEY = ekey[i];
 2845               	.LM309:
 2846 094a 9E13      		cpse r25,r30
 2847 094c 00C0      		rjmp .L203
 2848 094e 90E0      		ldi r25,0
1136:../../src/radio/rf231_soc/source/basic_rf.c **** 
1137:../../src/radio/rf231_soc/source/basic_rf.c ****    for(i=0; 16*i<len; i++){ 
 2850               	.LM310:
 2851 0950 70E0      		ldi r23,0
1138:../../src/radio/rf231_soc/source/basic_rf.c ****       if(i==0)
1139:../../src/radio/rf231_soc/source/basic_rf.c ****          AES_CTRL = (0 << AES_MODE) | (0 << AES_DIR);
1140:../../src/radio/rf231_soc/source/basic_rf.c ****       else
1141:../../src/radio/rf231_soc/source/basic_rf.c ****          AES_CTRL = (1 << AES_MODE) | (0 << AES_DIR);
 2853               	.LM311:
 2854 0952 E0E2      		ldi r30,lo8(32)
 2855               	.L204:
1137:../../src/radio/rf231_soc/source/basic_rf.c ****       if(i==0)
 2857               	.LM312:
 2858 0954 40E1      		ldi r20,lo8(16)
 2859 0956 949F      		mul r25,r20
 2860 0958 9001      		movw r18,r0
 2861 095a 1124      		clr __zero_reg__
 2862 095c 2617      		cp r18,r22
 2863 095e 3707      		cpc r19,r23
 2864 0960 04F4      		brge .L202
1138:../../src/radio/rf231_soc/source/basic_rf.c ****       if(i==0)
 2866               	.LM313:
 2867 0962 9111      		cpse r25,__zero_reg__
 2868 0964 00C0      		rjmp .L205
1139:../../src/radio/rf231_soc/source/basic_rf.c ****       else
 2870               	.LM314:
 2871 0966 1092 3C01 		sts 316,__zero_reg__
 2872 096a 00C0      		rjmp .L206
 2873               	.L205:
 2875               	.LM315:
 2876 096c E093 3C01 		sts 316,r30
 2877               	.L206:
1131:../../src/radio/rf231_soc/source/basic_rf.c ****       return 1;
 2879               	.LM316:
 2880 0970 40E0      		ldi r20,0
 2881 0972 50E0      		ldi r21,0
 2882 0974 2A0F      		add r18,r26
 2883 0976 3B1F      		adc r19,r27
 2884               	.L207:
 2885 0978 E901      		movw r28,r18
 2886 097a C40F      		add r28,r20
 2887 097c D51F      		adc r29,r21
1142:../../src/radio/rf231_soc/source/basic_rf.c ****       
1143:../../src/radio/rf231_soc/source/basic_rf.c ****       for(j=0; j<16; j++)
1144:../../src/radio/rf231_soc/source/basic_rf.c ****          AES_STATE = data[16*i+j];
 2889               	.LM317:
 2890 097e F881      		ld r31,Y
 2891 0980 F093 3E01 		sts 318,r31
 2892 0984 4F5F      		subi r20,-1
 2893 0986 5F4F      		sbci r21,-1
1143:../../src/radio/rf231_soc/source/basic_rf.c ****          AES_STATE = data[16*i+j];
 2895               	.LM318:
 2896 0988 4031      		cpi r20,16
 2897 098a 5105      		cpc r21,__zero_reg__
 2898 098c 01F4      		brne .L207
1145:../../src/radio/rf231_soc/source/basic_rf.c ****       AES_CTRL |= (1 << AES_REQUEST);
 2900               	.LM319:
 2901 098e 4091 3C01 		lds r20,316
 2902 0992 4068      		ori r20,lo8(-128)
 2903 0994 4093 3C01 		sts 316,r20
 2904               	.L208:
1146:../../src/radio/rf231_soc/source/basic_rf.c ****       while(!(AES_STATUS & (1 << AES_DONE)))
 2906               	.LM320:
 2907 0998 4091 3D01 		lds r20,317
 2908 099c 40FF      		sbrs r20,0
 2909 099e 00C0      		rjmp .L208
 2910 09a0 40E0      		ldi r20,0
 2911 09a2 50E0      		ldi r21,0
 2912               	.L209:
1147:../../src/radio/rf231_soc/source/basic_rf.c ****          continue;
1148:../../src/radio/rf231_soc/source/basic_rf.c ****       for(j=0; j<16; j++)
1149:../../src/radio/rf231_soc/source/basic_rf.c ****          data[16*i+j] = AES_STATE;
 2914               	.LM321:
 2915 09a4 F091 3E01 		lds r31,318
 2916 09a8 E901      		movw r28,r18
 2917 09aa C40F      		add r28,r20
 2918 09ac D51F      		adc r29,r21
 2919 09ae F883      		st Y,r31
 2920 09b0 4F5F      		subi r20,-1
 2921 09b2 5F4F      		sbci r21,-1
1148:../../src/radio/rf231_soc/source/basic_rf.c ****          data[16*i+j] = AES_STATE;
 2923               	.LM322:
 2924 09b4 4031      		cpi r20,16
 2925 09b6 5105      		cpc r21,__zero_reg__
 2926 09b8 01F4      		brne .L209
1137:../../src/radio/rf231_soc/source/basic_rf.c ****       if(i==0)
 2928               	.LM323:
 2929 09ba 9F5F      		subi r25,lo8(-(1))
 2930 09bc 00C0      		rjmp .L204
 2931               	.L212:
1132:../../src/radio/rf231_soc/source/basic_rf.c **** 
 2933               	.LM324:
 2934 09be 81E0      		ldi r24,lo8(1)
 2935               	.L202:
 2936               	/* epilogue start */
1150:../../src/radio/rf231_soc/source/basic_rf.c ****    }
1151:../../src/radio/rf231_soc/source/basic_rf.c ****    return 0;
1152:../../src/radio/rf231_soc/source/basic_rf.c **** }
 2938               	.LM325:
 2939 09c0 DF91      		pop r29
 2940 09c2 CF91      		pop r28
 2941 09c4 0895      		ret
 2946               	.Lscope56:
 2948               		.stabd	78,0,0
 2952               	.global	aes_decrypt
 2954               	aes_decrypt:
 2955               		.stabd	46,0,0
1153:../../src/radio/rf231_soc/source/basic_rf.c **** 
1154:../../src/radio/rf231_soc/source/basic_rf.c **** uint8_t aes_decrypt(uint8_t *data, uint8_t len)
1155:../../src/radio/rf231_soc/source/basic_rf.c **** {
 2957               	.LM326:
 2958               	.LFBB57:
 2959 09c6 0F93      		push r16
 2960 09c8 1F93      		push r17
 2961 09ca CF93      		push r28
 2962 09cc DF93      		push r29
 2963               	/* prologue: function */
 2964               	/* frame size = 0 */
 2965               	/* stack size = 4 */
 2966               	.L__stack_usage = 4
 2967 09ce DC01      		movw r26,r24
1156:../../src/radio/rf231_soc/source/basic_rf.c ****    int8_t i;
1157:../../src/radio/rf231_soc/source/basic_rf.c ****    uint8_t j;
1158:../../src/radio/rf231_soc/source/basic_rf.c **** 
1159:../../src/radio/rf231_soc/source/basic_rf.c ****    if(len==1 || len%16!=0)
 2969               	.LM327:
 2970 09d0 6130      		cpi r22,lo8(1)
 2971 09d2 01F4      		brne .+2
 2972 09d4 00C0      		rjmp .L228
 2974               	.LM328:
 2975 09d6 862F      		mov r24,r22
 2976 09d8 8F70      		andi r24,lo8(15)
 2977 09da 01F0      		breq .+2
 2978 09dc 00C0      		rjmp .L228
 2980               	.LM329:
 2981 09de E0E0      		ldi r30,lo8(dkey)
 2982 09e0 F0E0      		ldi r31,hi8(dkey)
 2983 09e2 90E1      		ldi r25,lo8(16)
 2984 09e4 9E0F      		add r25,r30
 2985               	.L220:
1160:../../src/radio/rf231_soc/source/basic_rf.c ****       return 1;
1161:../../src/radio/rf231_soc/source/basic_rf.c **** 
1162:../../src/radio/rf231_soc/source/basic_rf.c ****    for(i=0; i<16; i++)
1163:../../src/radio/rf231_soc/source/basic_rf.c ****       AES_KEY = dkey[i];
 2987               	.LM330:
 2988 09e6 2191      		ld r18,Z+
 2989 09e8 2093 3F01 		sts 319,r18
1162:../../src/radio/rf231_soc/source/basic_rf.c ****       AES_KEY = dkey[i];
 2991               	.LM331:
 2992 09ec 9E13      		cpse r25,r30
 2993 09ee 00C0      		rjmp .L220
1164:../../src/radio/rf231_soc/source/basic_rf.c **** 
1165:../../src/radio/rf231_soc/source/basic_rf.c ****    for(i=(len/16)-1; i>=0; i--){ 
 2995               	.LM332:
 2996 09f0 6295      		swap r22
 2997 09f2 6F70      		andi r22,lo8(15)
 2998 09f4 6150      		subi r22,lo8(-(-1))
1166:../../src/radio/rf231_soc/source/basic_rf.c ****       AES_CTRL = (0 << AES_MODE) | (1 << AES_DIR);
 3000               	.LM333:
 3001 09f6 78E0      		ldi r23,lo8(8)
 3002               	.L221:
1165:../../src/radio/rf231_soc/source/basic_rf.c ****       AES_CTRL = (0 << AES_MODE) | (1 << AES_DIR);
 3004               	.LM334:
 3005 09f8 6F3F      		cpi r22,lo8(-1)
 3006 09fa 01F4      		brne .+2
 3007 09fc 00C0      		rjmp .L219
 3009               	.LM335:
 3010 09fe 7093 3C01 		sts 316,r23
1167:../../src/radio/rf231_soc/source/basic_rf.c ****       
1168:../../src/radio/rf231_soc/source/basic_rf.c ****       for(j=0; j<16; j++)
1169:../../src/radio/rf231_soc/source/basic_rf.c ****          AES_STATE = data[16*i+j];
 3012               	.LM336:
 3013 0a02 462F      		mov r20,r22
 3014 0a04 5527      		clr r21
 3015 0a06 47FD      		sbrc r20,7
 3016 0a08 5095      		com r21
 3017 0a0a 20E0      		ldi r18,0
 3018 0a0c 30E0      		ldi r19,0
 3019 0a0e ED01      		movw r28,r26
 3020 0a10 90E1      		ldi r25,lo8(16)
 3021 0a12 6902      		muls r22,r25
 3022 0a14 C00D      		add r28,r0
 3023 0a16 D11D      		adc r29,r1
 3024 0a18 1124      		clr __zero_reg__
 3025               	.L222:
 3026 0a1a FE01      		movw r30,r28
 3027 0a1c E20F      		add r30,r18
 3028 0a1e F31F      		adc r31,r19
 3030               	.LM337:
 3031 0a20 9081      		ld r25,Z
 3032 0a22 9093 3E01 		sts 318,r25
 3033 0a26 2F5F      		subi r18,-1
 3034 0a28 3F4F      		sbci r19,-1
1168:../../src/radio/rf231_soc/source/basic_rf.c ****          AES_STATE = data[16*i+j];
 3036               	.LM338:
 3037 0a2a 2031      		cpi r18,16
 3038 0a2c 3105      		cpc r19,__zero_reg__
 3039 0a2e 01F4      		brne .L222
1170:../../src/radio/rf231_soc/source/basic_rf.c ****       AES_CTRL |= (1 << AES_REQUEST);
 3041               	.LM339:
 3042 0a30 9091 3C01 		lds r25,316
 3043 0a34 9068      		ori r25,lo8(-128)
 3044 0a36 9093 3C01 		sts 316,r25
 3045               	.L223:
1171:../../src/radio/rf231_soc/source/basic_rf.c ****       while(!(AES_STATUS & (1 << AES_DONE)))
 3047               	.LM340:
 3048 0a3a 9091 3D01 		lds r25,317
 3049 0a3e 90FF      		sbrs r25,0
 3050 0a40 00C0      		rjmp .L223
1172:../../src/radio/rf231_soc/source/basic_rf.c ****          continue;
1173:../../src/radio/rf231_soc/source/basic_rf.c ****       for(j=0; j<16; j++){
1174:../../src/radio/rf231_soc/source/basic_rf.c ****          data[16*i+j] = AES_STATE;
1175:../../src/radio/rf231_soc/source/basic_rf.c ****          if(i!=0)
1176:../../src/radio/rf231_soc/source/basic_rf.c ****             data[16*i+j] ^= data[16*(i-1)+j];
 3052               	.LM341:
 3053 0a42 4150      		subi r20,1
 3054 0a44 5109      		sbc r21,__zero_reg__
 3055 0a46 94E0      		ldi r25,4
 3056               		1:
 3057 0a48 440F      		lsl r20
 3058 0a4a 551F      		rol r21
 3059 0a4c 9A95      		dec r25
 3060 0a4e 01F4      		brne 1b
 3061 0a50 20E0      		ldi r18,0
 3062 0a52 30E0      		ldi r19,0
 3063               	.L225:
1174:../../src/radio/rf231_soc/source/basic_rf.c ****          if(i!=0)
 3065               	.LM342:
 3066 0a54 9091 3E01 		lds r25,318
 3067 0a58 8E01      		movw r16,r28
 3068 0a5a 020F      		add r16,r18
 3069 0a5c 131F      		adc r17,r19
 3070 0a5e F801      		movw r30,r16
 3071 0a60 9083      		st Z,r25
1175:../../src/radio/rf231_soc/source/basic_rf.c ****             data[16*i+j] ^= data[16*(i-1)+j];
 3073               	.LM343:
 3074 0a62 6623      		tst r22
 3075 0a64 01F0      		breq .L224
 3076 0a66 F901      		movw r30,r18
 3077 0a68 E40F      		add r30,r20
 3078 0a6a F51F      		adc r31,r21
 3079 0a6c EA0F      		add r30,r26
 3080 0a6e FB1F      		adc r31,r27
 3082               	.LM344:
 3083 0a70 E081      		ld r30,Z
 3084 0a72 9E27      		eor r25,r30
 3085 0a74 F801      		movw r30,r16
 3086 0a76 9083      		st Z,r25
 3087               	.L224:
 3088 0a78 2F5F      		subi r18,-1
 3089 0a7a 3F4F      		sbci r19,-1
1173:../../src/radio/rf231_soc/source/basic_rf.c ****          data[16*i+j] = AES_STATE;
 3091               	.LM345:
 3092 0a7c 2031      		cpi r18,16
 3093 0a7e 3105      		cpc r19,__zero_reg__
 3094 0a80 01F4      		brne .L225
 3095 0a82 6150      		subi r22,lo8(-(-1))
 3096 0a84 00C0      		rjmp .L221
 3097               	.L228:
1160:../../src/radio/rf231_soc/source/basic_rf.c **** 
 3099               	.LM346:
 3100 0a86 81E0      		ldi r24,lo8(1)
 3101               	.L219:
 3102               	/* epilogue start */
1177:../../src/radio/rf231_soc/source/basic_rf.c ****       }
1178:../../src/radio/rf231_soc/source/basic_rf.c ****    }
1179:../../src/radio/rf231_soc/source/basic_rf.c ****    return 0;
1180:../../src/radio/rf231_soc/source/basic_rf.c **** }
 3104               	.LM347:
 3105 0a88 DF91      		pop r29
 3106 0a8a CF91      		pop r28
 3107 0a8c 1F91      		pop r17
 3108 0a8e 0F91      		pop r16
 3109 0a90 0895      		ret
 3114               	.Lscope57:
 3116               		.stabd	78,0,0
 3117               	.global	reset_val
 3118               		.data
 3121               	reset_val:
 3122 0000 43        		.byte	67
 3123 0001 15        		.byte	21
 3124 0002 A6        		.byte	-90
 3125 0003 D9        		.byte	-39
 3126 0004 3D        		.byte	61
 3127 0005 31        		.byte	49
 3128 0006 82        		.byte	-126
 3129 0007 F1        		.byte	-15
 3130 0008 8C        		.byte	-116
 3131 0009 A7        		.byte	-89
 3132 000a 4F        		.byte	79
 3133 000b C5        		.byte	-59
 3134 000c 99        		.byte	-103
 3135 000d 97        		.byte	-105
 3136 000e 04        		.byte	4
 3137 000f AC        		.byte	-84
 3138               	.global	wireless_prog
 3139               		.section .bss
 3142               	wireless_prog:
 3143 0000 00        		.zero	1
 3144               		.comm	dkey,16,1
 3145               		.comm	ekey,16,1
 3146               	.global	rx_end_func
 3149               	rx_end_func:
 3150 0001 0000      		.zero	2
 3151               	.global	rx_start_func
 3154               	rx_start_func:
 3155 0003 0000      		.zero	2
 3156               		.comm	use_glossy,1,1
 3157               		.comm	tx_done,1,1
 3158               		.comm	rx_ready,1,1
 3159               		.comm	rf_ready,1,1
 3160               		.comm	rfSettings,9,1
 3161               		.comm	rx_ctr,4,1
 3162               		.comm	tx_ctr,6,1
 3163               		.comm	mdmctrl0,2,1
 3164               		.comm	radio_sem,2,1
 3165               		.comm	app_timer0_prescale,1,1
 3166               		.comm	app_timer0_callback,2,1
 3167               		.comm	_nrk_time_trigger,1,1
 3168               		.comm	_nrk_prev_timer_val,1,1
 3169               		.comm	error_num,1,1
 3170               		.comm	error_task,1,1
 3171               		.comm	nrk_kernel_stk_ptr,2,1
 3172               		.comm	nrk_idle_task_stk,128,1
 3173               		.comm	_nrk_signal_list,4,1
 3198               		.text
 3200               	.Letext0:
 3201               		.ident	"GCC: (GNU) 4.9.1"
 3202               	.global __do_copy_data
 3203               	.global __do_clear_bss
DEFINED SYMBOLS
                            *ABS*:0000000000000000 basic_rf.c
/var/folders/5w/cgn1dq610yqf6q25zlv0gqm40000gn/T//cc2XjZ7A.s:2      *ABS*:000000000000003e __SP_H__
/var/folders/5w/cgn1dq610yqf6q25zlv0gqm40000gn/T//cc2XjZ7A.s:3      *ABS*:000000000000003d __SP_L__
/var/folders/5w/cgn1dq610yqf6q25zlv0gqm40000gn/T//cc2XjZ7A.s:4      *ABS*:000000000000003f __SREG__
/var/folders/5w/cgn1dq610yqf6q25zlv0gqm40000gn/T//cc2XjZ7A.s:5      *ABS*:000000000000003b __RAMPZ__
/var/folders/5w/cgn1dq610yqf6q25zlv0gqm40000gn/T//cc2XjZ7A.s:6      *ABS*:0000000000000000 __tmp_reg__
/var/folders/5w/cgn1dq610yqf6q25zlv0gqm40000gn/T//cc2XjZ7A.s:7      *ABS*:0000000000000001 __zero_reg__
/var/folders/5w/cgn1dq610yqf6q25zlv0gqm40000gn/T//cc2XjZ7A.s:331    .text:0000000000000000 rf_cmd
/var/folders/5w/cgn1dq610yqf6q25zlv0gqm40000gn/T//cc2XjZ7A.s:359    .text:0000000000000010 set_wireless_prog
/var/folders/5w/cgn1dq610yqf6q25zlv0gqm40000gn/T//cc2XjZ7A.s:3142   .bss:0000000000000000 wireless_prog
/var/folders/5w/cgn1dq610yqf6q25zlv0gqm40000gn/T//cc2XjZ7A.s:379    .text:0000000000000016 rf_enable_glossy
                            *COM*:0000000000000001 use_glossy
/var/folders/5w/cgn1dq610yqf6q25zlv0gqm40000gn/T//cc2XjZ7A.s:400    .text:000000000000001e rf_disable_glossy
/var/folders/5w/cgn1dq610yqf6q25zlv0gqm40000gn/T//cc2XjZ7A.s:420    .text:0000000000000024 rf_power_down
/var/folders/5w/cgn1dq610yqf6q25zlv0gqm40000gn/T//cc2XjZ7A.s:497    .text:0000000000000070 rf_power_up
/var/folders/5w/cgn1dq610yqf6q25zlv0gqm40000gn/T//cc2XjZ7A.s:549    .text:000000000000009c rf_pll_on
/var/folders/5w/cgn1dq610yqf6q25zlv0gqm40000gn/T//cc2XjZ7A.s:570    .text:00000000000000a2 rf_tx_power
/var/folders/5w/cgn1dq610yqf6q25zlv0gqm40000gn/T//cc2XjZ7A.s:600    .text:00000000000000b6 rf_addr_decode_enable
/var/folders/5w/cgn1dq610yqf6q25zlv0gqm40000gn/T//cc2XjZ7A.s:624    .text:00000000000000c2 rf_addr_decode_disable
/var/folders/5w/cgn1dq610yqf6q25zlv0gqm40000gn/T//cc2XjZ7A.s:648    .text:00000000000000ce rf_auto_ack_enable
/var/folders/5w/cgn1dq610yqf6q25zlv0gqm40000gn/T//cc2XjZ7A.s:672    .text:00000000000000da rf_auto_ack_disable
/var/folders/5w/cgn1dq610yqf6q25zlv0gqm40000gn/T//cc2XjZ7A.s:697    .text:00000000000000e6 rf_addr_decode_set_my_mac
                            *COM*:0000000000000009 rfSettings
/var/folders/5w/cgn1dq610yqf6q25zlv0gqm40000gn/T//cc2XjZ7A.s:726    .text:00000000000000f8 rf_set_rx
/var/folders/5w/cgn1dq610yqf6q25zlv0gqm40000gn/T//cc2XjZ7A.s:760    .text:0000000000000112 rx_start_callback
/var/folders/5w/cgn1dq610yqf6q25zlv0gqm40000gn/T//cc2XjZ7A.s:3154   .bss:0000000000000003 rx_start_func
/var/folders/5w/cgn1dq610yqf6q25zlv0gqm40000gn/T//cc2XjZ7A.s:782    .text:000000000000011c rx_end_callback
/var/folders/5w/cgn1dq610yqf6q25zlv0gqm40000gn/T//cc2XjZ7A.s:3149   .bss:0000000000000001 rx_end_func
/var/folders/5w/cgn1dq610yqf6q25zlv0gqm40000gn/T//cc2XjZ7A.s:807    .text:0000000000000126 rf_init
                            *COM*:0000000000000001 rf_ready
                            *COM*:0000000000000001 rx_ready
                            *COM*:0000000000000001 tx_done
/var/folders/5w/cgn1dq610yqf6q25zlv0gqm40000gn/T//cc2XjZ7A.s:978    .text:0000000000000206 rf_rx_on
/var/folders/5w/cgn1dq610yqf6q25zlv0gqm40000gn/T//cc2XjZ7A.s:998    .text:000000000000020c rf_polling_rx_on
/var/folders/5w/cgn1dq610yqf6q25zlv0gqm40000gn/T//cc2XjZ7A.s:1018   .text:0000000000000212 rf_rx_off
/var/folders/5w/cgn1dq610yqf6q25zlv0gqm40000gn/T//cc2XjZ7A.s:1043   .text:000000000000021e rf_tx_packet
/var/folders/5w/cgn1dq610yqf6q25zlv0gqm40000gn/T//cc2XjZ7A.s:1316   .text:0000000000000394 rf_tx_packet_resend
/var/folders/5w/cgn1dq610yqf6q25zlv0gqm40000gn/T//cc2XjZ7A.s:1365   .text:00000000000003b6 rf_cca_check
/var/folders/5w/cgn1dq610yqf6q25zlv0gqm40000gn/T//cc2XjZ7A.s:1463   .text:000000000000041a rf_rx_packet_nonblock
/var/folders/5w/cgn1dq610yqf6q25zlv0gqm40000gn/T//cc2XjZ7A.s:3121   .data:0000000000000000 reset_val
/var/folders/5w/cgn1dq610yqf6q25zlv0gqm40000gn/T//cc2XjZ7A.s:1728   .text:00000000000005ee __vector_64
/var/folders/5w/cgn1dq610yqf6q25zlv0gqm40000gn/T//cc2XjZ7A.s:1763   .text:000000000000060c __vector_63
/var/folders/5w/cgn1dq610yqf6q25zlv0gqm40000gn/T//cc2XjZ7A.s:1802   .text:0000000000000630 __vector_62
/var/folders/5w/cgn1dq610yqf6q25zlv0gqm40000gn/T//cc2XjZ7A.s:1837   .text:000000000000064e __vector_61
/var/folders/5w/cgn1dq610yqf6q25zlv0gqm40000gn/T//cc2XjZ7A.s:1872   .text:000000000000066c __vector_59
/var/folders/5w/cgn1dq610yqf6q25zlv0gqm40000gn/T//cc2XjZ7A.s:1943   .text:00000000000006cc __vector_58
/var/folders/5w/cgn1dq610yqf6q25zlv0gqm40000gn/T//cc2XjZ7A.s:1978   .text:00000000000006ea __vector_57
/var/folders/5w/cgn1dq610yqf6q25zlv0gqm40000gn/T//cc2XjZ7A.s:2014   .text:0000000000000708 rf_set_cca_thresh
/var/folders/5w/cgn1dq610yqf6q25zlv0gqm40000gn/T//cc2XjZ7A.s:2044   .text:000000000000071c rf_security_last_pkt_status
/var/folders/5w/cgn1dq610yqf6q25zlv0gqm40000gn/T//cc2XjZ7A.s:2065   .text:0000000000000720 rf_security_set_ctr_counter
/var/folders/5w/cgn1dq610yqf6q25zlv0gqm40000gn/T//cc2XjZ7A.s:2083   .text:0000000000000722 rf_security_set_key
/var/folders/5w/cgn1dq610yqf6q25zlv0gqm40000gn/T//cc2XjZ7A.s:2100   .text:0000000000000724 rf_security_disable
/var/folders/5w/cgn1dq610yqf6q25zlv0gqm40000gn/T//cc2XjZ7A.s:2120   .text:0000000000000726 rf_tx_tdma_packet
/var/folders/5w/cgn1dq610yqf6q25zlv0gqm40000gn/T//cc2XjZ7A.s:2140   .text:000000000000072a rf_get_sem
                            *COM*:0000000000000002 radio_sem
/var/folders/5w/cgn1dq610yqf6q25zlv0gqm40000gn/T//cc2XjZ7A.s:2161   .text:0000000000000734 rf_flush_rx_fifo
/var/folders/5w/cgn1dq610yqf6q25zlv0gqm40000gn/T//cc2XjZ7A.s:2178   .text:0000000000000736 rf_busy
/var/folders/5w/cgn1dq610yqf6q25zlv0gqm40000gn/T//cc2XjZ7A.s:2198   .text:000000000000073a rf_rx_check_fifop
/var/folders/5w/cgn1dq610yqf6q25zlv0gqm40000gn/T//cc2XjZ7A.s:2218   .text:000000000000073e rf_rx_check_sfd
/var/folders/5w/cgn1dq610yqf6q25zlv0gqm40000gn/T//cc2XjZ7A.s:2238   .text:0000000000000742 rf_carrier_on
/var/folders/5w/cgn1dq610yqf6q25zlv0gqm40000gn/T//cc2XjZ7A.s:2255   .text:0000000000000744 rf_carrier_off
/var/folders/5w/cgn1dq610yqf6q25zlv0gqm40000gn/T//cc2XjZ7A.s:2272   .text:0000000000000746 rf_test_mode
/var/folders/5w/cgn1dq610yqf6q25zlv0gqm40000gn/T//cc2XjZ7A.s:2289   .text:0000000000000748 rf_data_mode
/var/folders/5w/cgn1dq610yqf6q25zlv0gqm40000gn/T//cc2XjZ7A.s:2306   .text:000000000000074a rf_rx_set_serial
/var/folders/5w/cgn1dq610yqf6q25zlv0gqm40000gn/T//cc2XjZ7A.s:2323   .text:000000000000074c rf_tx_set_serial
/var/folders/5w/cgn1dq610yqf6q25zlv0gqm40000gn/T//cc2XjZ7A.s:2341   .text:000000000000074e rf_set_preamble_length
/var/folders/5w/cgn1dq610yqf6q25zlv0gqm40000gn/T//cc2XjZ7A.s:2359   .text:0000000000000750 rf_set_cca_mode
/var/folders/5w/cgn1dq610yqf6q25zlv0gqm40000gn/T//cc2XjZ7A.s:2376   .text:0000000000000752 rf_cc2591_tx_on
/var/folders/5w/cgn1dq610yqf6q25zlv0gqm40000gn/T//cc2XjZ7A.s:2406   .text:0000000000000762 rf_cc2591_rx_on
/var/folders/5w/cgn1dq610yqf6q25zlv0gqm40000gn/T//cc2XjZ7A.s:2444   .text:0000000000000772 rf_glossy_interrupt
/var/folders/5w/cgn1dq610yqf6q25zlv0gqm40000gn/T//cc2XjZ7A.s:2619   .text:000000000000084c __vector_60
/var/folders/5w/cgn1dq610yqf6q25zlv0gqm40000gn/T//cc2XjZ7A.s:2738   .text:00000000000008e4 aes_setkey
                            *COM*:0000000000000010 ekey
                            *COM*:0000000000000010 dkey
/var/folders/5w/cgn1dq610yqf6q25zlv0gqm40000gn/T//cc2XjZ7A.s:2810   .text:0000000000000928 aes_encrypt
/var/folders/5w/cgn1dq610yqf6q25zlv0gqm40000gn/T//cc2XjZ7A.s:2954   .text:00000000000009c6 aes_decrypt
                            *COM*:0000000000000004 rx_ctr
                            *COM*:0000000000000006 tx_ctr
                            *COM*:0000000000000002 mdmctrl0
                            *COM*:0000000000000001 app_timer0_prescale
                            *COM*:0000000000000002 app_timer0_callback
                            *COM*:0000000000000001 _nrk_time_trigger
                            *COM*:0000000000000001 _nrk_prev_timer_val
                            *COM*:0000000000000001 error_num
                            *COM*:0000000000000001 error_task
                            *COM*:0000000000000002 nrk_kernel_stk_ptr
                            *COM*:0000000000000080 nrk_idle_task_stk
                            *COM*:0000000000000004 _nrk_signal_list

UNDEFINED SYMBOLS
memcpy
strncmp
nrk_led_set
nrk_int_disable
puts
nrk_int_enable
putchar
printf
__do_copy_data
__do_clear_bss
